
TinyBASIC.elf:     file format elf32-littleriscv
TinyBASIC.elf
architecture: riscv:rv32, flags 0x00000112:
EXEC_P, HAS_SYMS, D_PAGED
start address 0x00000000

Program Header:
    LOAD off    0x00001000 vaddr 0x00000000 paddr 0x00000000 align 2**12
         filesz 0x00003ce8 memsz 0x00003ce8 flags r-x
    LOAD off    0x00005000 vaddr 0x20000000 paddr 0x00003ce8 align 2**12
         filesz 0x00000158 memsz 0x00000518 flags rw-
    LOAD off    0x00005700 vaddr 0x20000700 paddr 0x20000700 align 2**12
         filesz 0x00000000 memsz 0x00000100 flags rw-

Sections:
Idx Name          Size      VMA       LMA       File off  Algn
  0 .init         000000a0  00000000  00000000  00001000  2**2
                  CONTENTS, ALLOC, LOAD, READONLY, CODE
  1 .text         00003c48  000000a0  000000a0  000010a0  2**3
                  CONTENTS, ALLOC, LOAD, READONLY, CODE
  2 .fini         00000000  00003ce8  00003ce8  00005158  2**0
                  CONTENTS, ALLOC, LOAD, CODE
  3 .dalign       00000000  20000000  20000000  00005158  2**0
                  CONTENTS
  4 .dlalign      00000000  00003ce8  00003ce8  00005158  2**0
                  CONTENTS
  5 .data         00000158  20000000  00003ce8  00005000  2**2
                  CONTENTS, ALLOC, LOAD, DATA
  6 .bss          000003c0  20000158  00003e40  00005158  2**2
                  ALLOC
  7 .stack        00000100  20000700  20000700  00005700  2**0
                  ALLOC
  8 .debug_info   00010968  00000000  00000000  00005158  2**0
                  CONTENTS, READONLY, DEBUGGING
  9 .debug_abbrev 00002f55  00000000  00000000  00015ac0  2**0
                  CONTENTS, READONLY, DEBUGGING
 10 .debug_loc    000057b5  00000000  00000000  00018a15  2**0
                  CONTENTS, READONLY, DEBUGGING
 11 .debug_aranges 00000958  00000000  00000000  0001e1d0  2**3
                  CONTENTS, READONLY, DEBUGGING
 12 .debug_ranges 00000f88  00000000  00000000  0001eb28  2**3
                  CONTENTS, READONLY, DEBUGGING
 13 .debug_line   0000f929  00000000  00000000  0001fab0  2**0
                  CONTENTS, READONLY, DEBUGGING
 14 .debug_str    00002da4  00000000  00000000  0002f3d9  2**0
                  CONTENTS, READONLY, DEBUGGING
 15 .comment      00000033  00000000  00000000  0003217d  2**0
                  CONTENTS, READONLY
 16 .debug_frame  0000191c  00000000  00000000  000321b0  2**2
                  CONTENTS, READONLY, DEBUGGING
SYMBOL TABLE:
00000000 l    d  .init	00000000 .init
000000a0 l    d  .text	00000000 .text
00003ce8 l    d  .fini	00000000 .fini
20000000 l    d  .dalign	00000000 .dalign
00003ce8 l    d  .dlalign	00000000 .dlalign
20000000 l    d  .data	00000000 .data
20000158 l    d  .bss	00000000 .bss
20000700 l    d  .stack	00000000 .stack
00000000 l    d  .debug_info	00000000 .debug_info
00000000 l    d  .debug_abbrev	00000000 .debug_abbrev
00000000 l    d  .debug_loc	00000000 .debug_loc
00000000 l    d  .debug_aranges	00000000 .debug_aranges
00000000 l    d  .debug_ranges	00000000 .debug_ranges
00000000 l    d  .debug_line	00000000 .debug_line
00000000 l    d  .debug_str	00000000 .debug_str
00000000 l    d  .comment	00000000 .comment
00000000 l    d  .debug_frame	00000000 .debug_frame
00000000 l    df *ABS*	00000000 PS2Keyboard.c
000001f2 l     F .text	00000226 get_iso8859_code
20000160 l     O .bss	00000001 CapsLock
20000161 l     O .bss	00000001 CharBuffer
20000162 l     O .bss	00000001 UTF8next
20000163 l     O .bss	00000001 bitcount.4041
20000164 l     O .bss	00000010 buffer
20000174 l     O .bss	00000001 head
20000175 l     O .bss	00000001 incoming.4042
20000178 l     O .bss	00000004 keymap
2000017c l     O .bss	00000004 prev_ms.4043
20000180 l     O .bss	00000001 state.4057
20000181 l     O .bss	00000001 tail
00002f0c l     O .text	00000034 CSWTCH.43
00000000 l    df *ABS*	00000000 basic.c
00000000 l    df *ABS*	00000000 ch32v00x_it.c
00000000 l    df *ABS*	00000000 main.c
00000000 l    df *ABS*	00000000 system_ch32v00x.c
00000000 l    df *ABS*	00000000 ch32v00x_dma.c
00000000 l    df *ABS*	00000000 ch32v00x_exti.c
00000000 l    df *ABS*	00000000 ch32v00x_flash.c
00000000 l    df *ABS*	00000000 ch32v00x_gpio.c
00000000 l    df *ABS*	00000000 ch32v00x_misc.c
00000000 l    df *ABS*	00000000 ch32v00x_rcc.c
00000000 l    df *ABS*	00000000 ch32v00x_spi.c
00000000 l    df *ABS*	00000000 ch32v00x_tim.c
00000000 l    df *ABS*	00000000 debug.c
200000ec l     O .data	00000004 curbrk.4059
00000000 l    df *ABS*	00000000 malloc.c
00000000 l    df *ABS*	00000000 memmove.c
00000000 l    df *ABS*	00000000 nano-mallocr.c
00000000 l    df *ABS*	00000000 random.c
00000000 l    df *ABS*	00000000 sbrkr.c
00000000 l    df *ABS*	00000000 mlock.c
00000000 l    df *ABS*	00000000 multi3.c
00000000 l    df *ABS*	00000000 impure.c
200000f0 l     O .data	00000060 impure_data
00000000 l    df *ABS*	00000000 reent.c
0000255a g     F .text	00000016 DMA_Cmd
20000184 g     O .bss	00000040 arr
200001ec g     O .bss	00000050 ibuf
20000950 g       .data	00000000 __global_pointer$
00002d1c g     F .text	00000074 random
0000213e g     F .text	0000013a TIM1_CC_IRQHandler
00001e8c g     F .text	00000002 HardFault_Handler
00002dbc g     F .text	00000002 __malloc_unlock
0000055e g     F .text	00000092 kbd_init
000023c0  w      .text	00000000 SysTick_Handler
00002668 g     F .text	0000003a FLASH_BufLoad
0000281e g     F .text	000000d4 NVIC_Init
000023c6  w      .text	00000000 PVD_IRQHandler
00002c02 g     F .text	00000046 memmove
00001e88 g     F .text	00000004 NMI_Handler
00001062 g     F .text	00000046 getparam
000026dc g     F .text	00000038 FLASH_ProgramPage_Fast
20000514 g     O .bss	00000004 errno
20000158 g       .bss	00000000 _sbss
00000100 g       *ABS*	00000000 __stack_size
00002516 g     F .text	00000044 DMA_Init
000000aa g     F .text	0000000a .hidden __riscv_restore_2
00000de6 g     F .text	000001f4 putlist
00002b4e g     F .text	0000001a TIM_CtrlPWMOutputs
20000501 g     O .bss	00000001 cursor_y
00003254 g     O .text	0000000f i_nsb
00002b34 g     F .text	0000001a TIM_Cmd
00001da8 g     F .text	000000e0 basic
00002ba6 g     F .text	00000016 TIM_OC4PreloadConfig
00002bf4 g     F .text	0000000e malloc
00002bc0 g     F .text	0000000c TIM_ClearFlag
000000d4 g     F .text	0000002c .hidden __udivsi3
000000a0 g       .init	00000000 _einit
20000000 g     O .data	0000005c errmsg
00002614 g     F .text	0000001e FLASH_Unlock_Fast
00002910 g     F .text	0000001e RCC_APB2PeriphClockCmd
00002714 g     F .text	000000d8 GPIO_Init
0000152e g     F .text	00000040 ivar
20000510 g     O .bss	00000004 NVIC_Priority_Group
000023e6  w      .text	00000000 SPI1_IRQHandler
00002d90 g     F .text	0000002a _sbrk_r
00000fda g     F .text	00000088 iexp
000000a0 g     F .text	0000000a .hidden __riscv_save_1
000000aa g     F .text	0000000a .hidden __riscv_restore_0
000023ce  w      .text	00000000 AWU_IRQHandler
00002a0a g     F .text	000000ac TIM_OC3Init
00000418 g     F .text	000000d8 EXTI7_0_IRQHandler
200001d0 g     O .bss	00000018 gstk
20000700 g       .stack	00000000 _heap_end
00000c80 g     F .text	00000166 inslist
000028f2 g     F .text	0000001e RCC_AHBPeriphClockCmd
000023d6  w      .text	00000000 DMA1_Channel4_IRQHandler
000023de  w      .text	00000000 ADC1_IRQHandler
00002bcc g     F .text	00000028 _sbrk
00002606 g     F .text	0000000e FLASH_Lock
00002002 g     F .text	00000090 video_putch
000025fc g     F .text	0000000a EXTI_ClearITPendingBit
20000518 g       .bss	00000000 _ebss
000023dc  w      .text	00000000 DMA1_Channel7_IRQHandler
00002b98 g     F .text	0000000e TIM_OC3PreloadConfig
2000048c g     O .bss	0000003c lstk
00003240 g     O .text	00000013 i_nsa
00002f40 g     O .text	00000199 PS2Keymap_Japanese
00002b7c g     F .text	0000001c TIM_ARRPreloadConfig
00000100 g     F .text	00000008 .hidden __umodsi3
000023e0  w      .text	00000000 I2C1_EV_IRQHandler
000013a8 g     F .text	00000186 iinput
000023da  w      .text	00000000 DMA1_Channel6_IRQHandler
0000121c g     F .text	00000076 imul
20000502 g     O .bss	00000002 ntsc_line
000023ca  w      .text	00000000 RCC_IRQHandler
000023ec  w      .text	00000000 TIM1_TRG_COM_IRQHandler
000023d0  w      .text	00000000 DMA1_Channel1_IRQHandler
00000000 g       .init	00000000 _start
00002b68 g     F .text	00000014 TIM_ITConfig
00001a34 g     F .text	00000046 irun
00002570 g     F .text	0000006e EXTI_Init
000000b4 g     F .text	00000014 .hidden __mulsi3
00001a7a g     F .text	000000a2 ilist
000026a2 g     F .text	0000003a FLASH_ErasePage_Fast
20000000 g       .dalign	00000000 _data_vma
00002ab6 g     F .text	0000007e TIM_OC4Init
000027f6 g     F .text	00000022 GPIO_EXTILineConfig
000034dc g     O .text	00000800 msxfont
00002dba g     F .text	00000002 __malloc_lock
000025de g     F .text	0000001e EXTI_GetITStatus
200001c4 g     O .bss	00000004 cip
0000014a g     F .text	000000a8 memset
000020dc g     F .text	00000062 DMA_Tx_Init
200001cc g     O .bss	00000001 err
0000089e g     F .text	000003e2 toktoi
00002278 g     F .text	00000034 main
000006d0 g     F .text	000000ba putnum
00001bbe g     F .text	000000f0 icom
200001c8 g     O .bss	00000004 clp
20000504 g     O .bss	00000008 scandata
00002984 g     F .text	00000014 SPI_I2S_DMACmd
00002c48 g     F .text	000000d4 _malloc_r
000015bc g     F .text	00000038 ilet
2000028c g     O .bss	00000200 listbuf
00001b1c g     F .text	000000a2 isave
2000005c g     O .data	00000090 kwtbl
000023d8  w      .text	00000000 DMA1_Channel5_IRQHandler
000000cc g     F .text	00000058 .hidden __divsi3
000010a8 g     F .text	00000174 ivalue
00002bbc g     F .text	00000004 TIM_SetCompare4
00002968 g     F .text	0000001c SPI_Cmd
000012e4 g     F .text	000000c4 iprint
200001e8 g     O .bss	00000001 gstki
000022ac g     F .text	00000110 SystemInit
2000023c g     O .bss	00000050 lbuf
00000000 g       .init	00000000 _sinit
0000263c g     F .text	0000002c FLASH_BufReset
000023d4  w      .text	00000000 DMA1_Channel3_IRQHandler
20000150 g     O .data	00000004 _impure_ptr
00001cae g     F .text	000000fa error
000023ea  w      .text	00000000 TIM1_UP_IRQHandler
000023c4  w      .text	00000000 WWDG_IRQHandler
00000512 g     F .text	0000004c kbd_read
200004cc g     O .bss	00000034 var
000023f0  w      .text	00000000 TIM2_IRQHandler
200004c8 g     O .bss	00000001 lstki
20000800 g       .stack	00000000 _eusrstack
000000a0 g     F .text	0000000a .hidden __riscv_save_2
000023c2  w      .text	00000000 SW_Handler
00002632 g     F .text	0000000a FLASH_Lock_Fast
000023e8  w      .text	00000000 TIM1_BRK_IRQHandler
20000500 g     O .bss	00000001 cursor_x
20000158 g       .data	00000000 _edata
0000078a g     F .text	00000114 getnum
20000518 g       .bss	00000000 _end
00001292 g     F .text	00000052 iplus
00002998 g     F .text	00000072 TIM_TimeBaseInit
00003ce8 g       .dlalign	00000000 _data_lma
000004f0 g     F .text	00000022 kbd_available
00000124 g     F .text	00000024 .hidden __modsi3
2000050c g     O .bss	00000004 vram
000023d2  w      .text	00000000 DMA1_Channel2_IRQHandler
0000156e g     F .text	0000004e iarray
00002092 g     F .text	0000004a video_newline
000023f2  w      .text	00000000 handle_reset
000023c8  w      .text	00000000 FLASH_IRQHandler
000000a0 g     F .text	0000000a .hidden __riscv_save_0
00002dbe g     F .text	0000006a .hidden __muldi3
000023e4  w      .text	00000000 USART1_IRQHandler
000015f4 g     F .text	00000440 iexe
2000015c g     O .bss	00000004 __malloc_sbrk_start
000023e2  w      .text	00000000 I2C1_ER_IRQHandler
0000292e g     F .text	0000003a SPI_Init
00002818 g     F .text	00000006 NVIC_PriorityGroupConfig
0000246e g     F .text	000000a8 DMA_DeInit
000005f0 g     F .text	000000e0 c_gets
20000158 g     O .bss	00000004 __malloc_free_list
000000aa g     F .text	0000000a .hidden __riscv_restore_1
00001e8e g     F .text	00000174 video_init
000027ec g     F .text	0000000a GPIO_ReadInputDataBit



Disassembly of section .init:

00000000 <_sinit>:
   0:	3f20206f          	j	23f2 <handle_reset>
   4:	0000                	unimp
   6:	0000                	unimp
   8:	1e88                	addi	a0,sp,880
   a:	0000                	unimp
   c:	1e8c                	addi	a1,sp,880
	...
  2e:	0000                	unimp
  30:	23c0                	lbu	s0,4(a5)
  32:	0000                	unimp
  34:	0000                	unimp
  36:	0000                	unimp
  38:	23c2                	lhu	s0,4(a5)
  3a:	0000                	unimp
  3c:	0000                	unimp
  3e:	0000                	unimp
  40:	23c4                	lbu	s1,4(a5)
  42:	0000                	unimp
  44:	23c6                	lhu	s1,4(a5)
  46:	0000                	unimp
  48:	23c8                	lbu	a0,4(a5)
  4a:	0000                	unimp
  4c:	23ca                	lhu	a0,4(a5)
  4e:	0000                	unimp
  50:	0418                	addi	a4,sp,512
  52:	0000                	unimp
  54:	23ce                	lhu	a1,4(a5)
  56:	0000                	unimp
  58:	23d0                	lbu	a2,4(a5)
  5a:	0000                	unimp
  5c:	23d2                	lhu	a2,4(a5)
  5e:	0000                	unimp
  60:	23d4                	lbu	a3,4(a5)
  62:	0000                	unimp
  64:	23d6                	lhu	a3,4(a5)
  66:	0000                	unimp
  68:	23d8                	lbu	a4,4(a5)
  6a:	0000                	unimp
  6c:	23da                	lhu	a4,4(a5)
  6e:	0000                	unimp
  70:	23dc                	lbu	a5,4(a5)
  72:	0000                	unimp
  74:	23de                	lhu	a5,4(a5)
  76:	0000                	unimp
  78:	23e0                	lbu	s0,6(a5)
  7a:	0000                	unimp
  7c:	23e2                	lhu	s0,6(a5)
  7e:	0000                	unimp
  80:	23e4                	lbu	s1,6(a5)
  82:	0000                	unimp
  84:	23e6                	lhu	s1,6(a5)
  86:	0000                	unimp
  88:	23e8                	lbu	a0,6(a5)
  8a:	0000                	unimp
  8c:	23ea                	lhu	a0,6(a5)
  8e:	0000                	unimp
  90:	23ec                	lbu	a1,6(a5)
  92:	0000                	unimp
  94:	213e                	lhu	a5,2(a0)
  96:	0000                	unimp
  98:	23f0                	lbu	a2,6(a5)
  9a:	0000                	unimp
  9c:	0000                	unimp
	...

Disassembly of section .text:

000000a0 <__riscv_save_0>:
      a0:	1151                	addi	sp,sp,-12
      a2:	c026                	sw	s1,0(sp)
      a4:	c222                	sw	s0,4(sp)
      a6:	c406                	sw	ra,8(sp)
      a8:	8282                	jr	t0

000000aa <__riscv_restore_0>:
      aa:	4482                	lw	s1,0(sp)
      ac:	4412                	lw	s0,4(sp)
      ae:	40a2                	lw	ra,8(sp)
      b0:	0131                	addi	sp,sp,12
      b2:	8082                	ret

000000b4 <__mulsi3>:
      b4:	862a                	mv	a2,a0
      b6:	4501                	li	a0,0
      b8:	0015f693          	andi	a3,a1,1
      bc:	c291                	beqz	a3,c0 <__mulsi3+0xc>
      be:	9532                	add	a0,a0,a2
      c0:	8185                	srli	a1,a1,0x1
      c2:	0606                	slli	a2,a2,0x1
      c4:	f9f5                	bnez	a1,b8 <__mulsi3+0x4>
      c6:	8082                	ret
      c8:	0000                	unimp
	...

000000cc <__divsi3>:
      cc:	02054e63          	bltz	a0,108 <__umodsi3+0x8>
      d0:	0405c363          	bltz	a1,116 <__umodsi3+0x16>

000000d4 <__udivsi3>:
      d4:	862e                	mv	a2,a1
      d6:	85aa                	mv	a1,a0
      d8:	557d                	li	a0,-1
      da:	c215                	beqz	a2,fe <__udivsi3+0x2a>
      dc:	4685                	li	a3,1
      de:	00b67863          	bgeu	a2,a1,ee <__udivsi3+0x1a>
      e2:	00c05663          	blez	a2,ee <__udivsi3+0x1a>
      e6:	0606                	slli	a2,a2,0x1
      e8:	0686                	slli	a3,a3,0x1
      ea:	feb66ce3          	bltu	a2,a1,e2 <__udivsi3+0xe>
      ee:	4501                	li	a0,0
      f0:	00c5e463          	bltu	a1,a2,f8 <__udivsi3+0x24>
      f4:	8d91                	sub	a1,a1,a2
      f6:	8d55                	or	a0,a0,a3
      f8:	8285                	srli	a3,a3,0x1
      fa:	8205                	srli	a2,a2,0x1
      fc:	faf5                	bnez	a3,f0 <__udivsi3+0x1c>
      fe:	8082                	ret

00000100 <__umodsi3>:
     100:	8286                	mv	t0,ra
     102:	3fc9                	jal	d4 <__udivsi3>
     104:	852e                	mv	a0,a1
     106:	8282                	jr	t0
     108:	40a00533          	neg	a0,a0
     10c:	0005d763          	bgez	a1,11a <__umodsi3+0x1a>
     110:	40b005b3          	neg	a1,a1
     114:	b7c1                	j	d4 <__udivsi3>
     116:	40b005b3          	neg	a1,a1
     11a:	8286                	mv	t0,ra
     11c:	3f65                	jal	d4 <__udivsi3>
     11e:	40a00533          	neg	a0,a0
     122:	8282                	jr	t0

00000124 <__modsi3>:
     124:	8286                	mv	t0,ra
     126:	0005c763          	bltz	a1,134 <__modsi3+0x10>
     12a:	00054963          	bltz	a0,13c <__modsi3+0x18>
     12e:	375d                	jal	d4 <__udivsi3>
     130:	852e                	mv	a0,a1
     132:	8282                	jr	t0
     134:	40b005b3          	neg	a1,a1
     138:	fe055be3          	bgez	a0,12e <__modsi3+0xa>
     13c:	40a00533          	neg	a0,a0
     140:	3f51                	jal	d4 <__udivsi3>
     142:	40b00533          	neg	a0,a1
     146:	8282                	jr	t0
	...

0000014a <memset>:
     14a:	433d                	li	t1,15
     14c:	872a                	mv	a4,a0
     14e:	02c37363          	bgeu	t1,a2,174 <memset+0x2a>
     152:	00f77793          	andi	a5,a4,15
     156:	efbd                	bnez	a5,1d4 <memset+0x8a>
     158:	e5ad                	bnez	a1,1c2 <memset+0x78>
     15a:	ff067693          	andi	a3,a2,-16
     15e:	8a3d                	andi	a2,a2,15
     160:	96ba                	add	a3,a3,a4
     162:	c30c                	sw	a1,0(a4)
     164:	c34c                	sw	a1,4(a4)
     166:	c70c                	sw	a1,8(a4)
     168:	c74c                	sw	a1,12(a4)
     16a:	0741                	addi	a4,a4,16
     16c:	fed76be3          	bltu	a4,a3,162 <memset+0x18>
     170:	e211                	bnez	a2,174 <memset+0x2a>
     172:	8082                	ret
     174:	40c306b3          	sub	a3,t1,a2
     178:	068a                	slli	a3,a3,0x2
     17a:	00000297          	auipc	t0,0x0
     17e:	9696                	add	a3,a3,t0
     180:	00a68067          	jr	10(a3)
     184:	00b70723          	sb	a1,14(a4)
     188:	00b706a3          	sb	a1,13(a4)
     18c:	00b70623          	sb	a1,12(a4)
     190:	00b705a3          	sb	a1,11(a4)
     194:	00b70523          	sb	a1,10(a4)
     198:	00b704a3          	sb	a1,9(a4)
     19c:	00b70423          	sb	a1,8(a4)
     1a0:	00b703a3          	sb	a1,7(a4)
     1a4:	00b70323          	sb	a1,6(a4)
     1a8:	00b702a3          	sb	a1,5(a4)
     1ac:	00b70223          	sb	a1,4(a4)
     1b0:	00b701a3          	sb	a1,3(a4)
     1b4:	00b70123          	sb	a1,2(a4)
     1b8:	00b700a3          	sb	a1,1(a4)
     1bc:	00b70023          	sb	a1,0(a4)
     1c0:	8082                	ret
     1c2:	0ff5f593          	andi	a1,a1,255
     1c6:	00859693          	slli	a3,a1,0x8
     1ca:	8dd5                	or	a1,a1,a3
     1cc:	01059693          	slli	a3,a1,0x10
     1d0:	8dd5                	or	a1,a1,a3
     1d2:	b761                	j	15a <memset+0x10>
     1d4:	00279693          	slli	a3,a5,0x2
     1d8:	00000297          	auipc	t0,0x0
     1dc:	9696                	add	a3,a3,t0
     1de:	8286                	mv	t0,ra
     1e0:	fa8680e7          	jalr	-88(a3)
     1e4:	8096                	mv	ra,t0
     1e6:	17c1                	addi	a5,a5,-16
     1e8:	8f1d                	sub	a4,a4,a5
     1ea:	963e                	add	a2,a2,a5
     1ec:	f8c374e3          	bgeu	t1,a2,174 <memset+0x2a>
     1f0:	b7a5                	j	158 <memset+0xe>

000001f2 <get_iso8859_code>:
     1f2:	1101                	addi	sp,sp,-32
     1f4:	cc26                	sw	s1,24(sp)
     1f6:	81018493          	addi	s1,gp,-2032 # 20000160 <CapsLock>
     1fa:	8281a783          	lw	a5,-2008(gp) # 20000178 <keymap>
     1fe:	ce22                	sw	s0,28(sp)
     200:	c23e                	sw	a5,4(sp)
     202:	209c                	lbu	a5,0(s1)
     204:	83118693          	addi	a3,gp,-1999 # 20000181 <tail>
     208:	c03e                	sw	a5,0(sp)
     20a:	678d                	lui	a5,0x3
     20c:	e2878793          	addi	a5,a5,-472 # 2e28 <__muldi3+0x6a>
     210:	c43e                	sw	a5,8(sp)
     212:	678d                	lui	a5,0x3
     214:	f0c78793          	addi	a5,a5,-244 # 2f0c <CSWTCH.43>
     218:	2288                	lbu	a0,0(a3)
     21a:	82418613          	addi	a2,gp,-2012 # 20000174 <head>
     21e:	c63e                	sw	a5,12(sp)
     220:	221c                	lbu	a5,0(a2)
     222:	83018313          	addi	t1,gp,-2000 # 20000180 <state.4057>
     226:	0ff57513          	andi	a0,a0,255
     22a:	00034703          	lbu	a4,0(t1)
     22e:	4401                	li	s0,0
     230:	4381                	li	t2,0
     232:	42bd                	li	t0,15
     234:	81418593          	addi	a1,gp,-2028 # 20000164 <buffer>
     238:	06f50e63          	beq	a0,a5,2b4 <get_iso8859_code+0xc2>
     23c:	0505                	addi	a0,a0,1
     23e:	0ff57513          	andi	a0,a0,255
     242:	87aa                	mv	a5,a0
     244:	00a2f463          	bgeu	t0,a0,24c <get_iso8859_code+0x5a>
     248:	4781                	li	a5,0
     24a:	4501                	li	a0,0
     24c:	97ae                	add	a5,a5,a1
     24e:	239c                	lbu	a5,0(a5)
     250:	a288                	sb	a0,0(a3)
     252:	0ff7f793          	andi	a5,a5,255
     256:	cfb9                	beqz	a5,2b4 <get_iso8859_code+0xc2>
     258:	0f000513          	li	a0,240
     25c:	06a78663          	beq	a5,a0,2c8 <get_iso8859_code+0xd6>
     260:	0e000513          	li	a0,224
     264:	06a78863          	beq	a5,a0,2d4 <get_iso8859_code+0xe2>
     268:	00177513          	andi	a0,a4,1
     26c:	e941                	bnez	a0,2fc <get_iso8859_code+0x10a>
     26e:	4549                	li	a0,18
     270:	16a78463          	beq	a5,a0,3d8 <get_iso8859_code+0x1e6>
     274:	05900513          	li	a0,89
     278:	16a78b63          	beq	a5,a0,3ee <get_iso8859_code+0x1fc>
     27c:	4545                	li	a0,17
     27e:	00277393          	andi	t2,a4,2
     282:	08a78f63          	beq	a5,a0,320 <get_iso8859_code+0x12e>
     286:	05800513          	li	a0,88
     28a:	0ea78963          	beq	a5,a0,37c <get_iso8859_code+0x18a>
     28e:	04038963          	beqz	t2,2e0 <get_iso8859_code+0xee>
     292:	fb678793          	addi	a5,a5,-74
     296:	0ff7f793          	andi	a5,a5,255
     29a:	03300513          	li	a0,51
     29e:	0ef57a63          	bgeu	a0,a5,392 <get_iso8859_code+0x1a0>
     2a2:	0fc77713          	andi	a4,a4,252
     2a6:	4385                	li	t2,1
     2a8:	2288                	lbu	a0,0(a3)
     2aa:	221c                	lbu	a5,0(a2)
     2ac:	0ff57513          	andi	a0,a0,255
     2b0:	f8f516e3          	bne	a0,a5,23c <get_iso8859_code+0x4a>
     2b4:	00038463          	beqz	t2,2bc <get_iso8859_code+0xca>
     2b8:	00e30023          	sb	a4,0(t1)
     2bc:	e07d                	bnez	s0,3a2 <get_iso8859_code+0x1b0>
     2be:	4501                	li	a0,0
     2c0:	4472                	lw	s0,28(sp)
     2c2:	44e2                	lw	s1,24(sp)
     2c4:	6105                	addi	sp,sp,32
     2c6:	8082                	ret
     2c8:	00176713          	ori	a4,a4,1
     2cc:	0ff77713          	andi	a4,a4,255
     2d0:	4385                	li	t2,1
     2d2:	bfd9                	j	2a8 <get_iso8859_code+0xb6>
     2d4:	00276713          	ori	a4,a4,2
     2d8:	0ff77713          	andi	a4,a4,255
     2dc:	4385                	li	t2,1
     2de:	b7e9                	j	2a8 <get_iso8859_code+0xb6>
     2e0:	feb78513          	addi	a0,a5,-21
     2e4:	0ff57513          	andi	a0,a0,255
     2e8:	03800393          	li	t2,56
     2ec:	c83e                	sw	a5,16(sp)
     2ee:	0ca3eb63          	bltu	t2,a0,3c4 <get_iso8859_code+0x1d2>
     2f2:	43a2                	lw	t2,8(sp)
     2f4:	050a                	slli	a0,a0,0x2
     2f6:	951e                	add	a0,a0,t2
     2f8:	4108                	lw	a0,0(a0)
     2fa:	8502                	jr	a0
     2fc:	4549                	li	a0,18
     2fe:	0ea78363          	beq	a5,a0,3e4 <get_iso8859_code+0x1f2>
     302:	05900513          	li	a0,89
     306:	06a78663          	beq	a5,a0,372 <get_iso8859_code+0x180>
     30a:	4545                	li	a0,17
     30c:	f8a79be3          	bne	a5,a0,2a2 <get_iso8859_code+0xb0>
     310:	00277793          	andi	a5,a4,2
     314:	d7d9                	beqz	a5,2a2 <get_iso8859_code+0xb0>
     316:	0ef77713          	andi	a4,a4,239
     31a:	0fc77713          	andi	a4,a4,252
     31e:	b761                	j	2a6 <get_iso8859_code+0xb4>
     320:	fc0380e3          	beqz	t2,2e0 <get_iso8859_code+0xee>
     324:	01076713          	ori	a4,a4,16
     328:	0ff77713          	andi	a4,a4,255
     32c:	0fc77713          	andi	a4,a4,252
     330:	bf9d                	j	2a6 <get_iso8859_code+0xb4>
     332:	4505                	li	a0,1
     334:	ca2a                	sw	a0,20(sp)
     336:	08700513          	li	a0,135
     33a:	0fc77393          	andi	t2,a4,252
     33e:	08f56a63          	bltu	a0,a5,3d2 <get_iso8859_code+0x1e0>
     342:	01077793          	andi	a5,a4,16
     346:	c789                	beqz	a5,350 <get_iso8859_code+0x15e>
     348:	4792                	lw	a5,4(sp)
     34a:	1107c783          	lbu	a5,272(a5)
     34e:	efa9                	bnez	a5,3a8 <get_iso8859_code+0x1b6>
     350:	8b31                	andi	a4,a4,12
     352:	4782                	lw	a5,0(sp)
     354:	c35d                	beqz	a4,3fa <get_iso8859_code+0x208>
     356:	efd5                	bnez	a5,412 <get_iso8859_code+0x220>
     358:	4742                	lw	a4,16(sp)
     35a:	4792                	lw	a5,4(sp)
     35c:	97ba                	add	a5,a5,a4
     35e:	08878503          	lb	a0,136(a5)
     362:	871e                	mv	a4,t2
     364:	d129                	beqz	a0,2a6 <get_iso8859_code+0xb4>
     366:	00e30023          	sb	a4,0(t1)
     36a:	d839                	beqz	s0,2c0 <get_iso8859_code+0xce>
     36c:	4782                	lw	a5,0(sp)
     36e:	a09c                	sb	a5,0(s1)
     370:	bf81                	j	2c0 <get_iso8859_code+0xce>
     372:	0f777713          	andi	a4,a4,247
     376:	0fc77713          	andi	a4,a4,252
     37a:	b735                	j	2a6 <get_iso8859_code+0xb4>
     37c:	00477513          	andi	a0,a4,4
     380:	cd0d                	beqz	a0,3ba <get_iso8859_code+0x1c8>
     382:	4502                	lw	a0,0(sp)
     384:	4405                	li	s0,1
     386:	00154513          	xori	a0,a0,1
     38a:	c02a                	sw	a0,0(sp)
     38c:	02038963          	beqz	t2,3be <get_iso8859_code+0x1cc>
     390:	47b9                	li	a5,14
     392:	4532                	lw	a0,12(sp)
     394:	0fc77713          	andi	a4,a4,252
     398:	97aa                	add	a5,a5,a0
     39a:	00078503          	lb	a0,0(a5)
     39e:	d501                	beqz	a0,2a6 <get_iso8859_code+0xb4>
     3a0:	b7d9                	j	366 <get_iso8859_code+0x174>
     3a2:	4782                	lw	a5,0(sp)
     3a4:	a09c                	sb	a5,0(s1)
     3a6:	bf21                	j	2be <get_iso8859_code+0xcc>
     3a8:	4742                	lw	a4,16(sp)
     3aa:	4792                	lw	a5,4(sp)
     3ac:	97ba                	add	a5,a5,a4
     3ae:	11178503          	lb	a0,273(a5)
     3b2:	871e                	mv	a4,t2
     3b4:	ee0509e3          	beqz	a0,2a6 <get_iso8859_code+0xb4>
     3b8:	b77d                	j	366 <get_iso8859_code+0x174>
     3ba:	fc039be3          	bnez	t2,390 <get_iso8859_code+0x19e>
     3be:	05800513          	li	a0,88
     3c2:	c82a                	sw	a0,16(sp)
     3c4:	ca02                	sw	zero,20(sp)
     3c6:	08700513          	li	a0,135
     3ca:	0fc77393          	andi	t2,a4,252
     3ce:	f6f57ae3          	bgeu	a0,a5,342 <get_iso8859_code+0x150>
     3d2:	871e                	mv	a4,t2
     3d4:	4385                	li	t2,1
     3d6:	bdc9                	j	2a8 <get_iso8859_code+0xb6>
     3d8:	00476713          	ori	a4,a4,4
     3dc:	0ff77713          	andi	a4,a4,255
     3e0:	4385                	li	t2,1
     3e2:	b5d9                	j	2a8 <get_iso8859_code+0xb6>
     3e4:	0fb77713          	andi	a4,a4,251
     3e8:	0fc77713          	andi	a4,a4,252
     3ec:	bd6d                	j	2a6 <get_iso8859_code+0xb4>
     3ee:	00876713          	ori	a4,a4,8
     3f2:	0ff77713          	andi	a4,a4,255
     3f6:	4385                	li	t2,1
     3f8:	bd45                	j	2a8 <get_iso8859_code+0xb6>
     3fa:	c399                	beqz	a5,400 <get_iso8859_code+0x20e>
     3fc:	47d2                	lw	a5,20(sp)
     3fe:	ffa9                	bnez	a5,358 <get_iso8859_code+0x166>
     400:	4742                	lw	a4,16(sp)
     402:	4792                	lw	a5,4(sp)
     404:	97ba                	add	a5,a5,a4
     406:	00078503          	lb	a0,0(a5)
     40a:	871e                	mv	a4,t2
     40c:	e8050de3          	beqz	a0,2a6 <get_iso8859_code+0xb4>
     410:	bf99                	j	366 <get_iso8859_code+0x174>
     412:	47d2                	lw	a5,20(sp)
     414:	f7f5                	bnez	a5,400 <get_iso8859_code+0x20e>
     416:	b789                	j	358 <get_iso8859_code+0x166>

00000418 <EXTI7_0_IRQHandler>:
     418:	1171                	addi	sp,sp,-4
     41a:	4509                	li	a0,2
     41c:	c022                	sw	s0,0(sp)
     41e:	1c0020ef          	jal	ra,25de <EXTI_GetITStatus>
     422:	e509                	bnez	a0,42c <EXTI7_0_IRQHandler+0x14>
     424:	4402                	lw	s0,0(sp)
     426:	0111                	addi	sp,sp,4
     428:	30200073          	mret
     42c:	4589                	li	a1,2
     42e:	40011537          	lui	a0,0x40011
     432:	3ba020ef          	jal	ra,27ec <GPIO_ReadInputDataBit>
     436:	ed21                	bnez	a0,48e <EXTI7_0_IRQHandler+0x76>
     438:	4591                	li	a1,4
     43a:	40011537          	lui	a0,0x40011
     43e:	3ae020ef          	jal	ra,27ec <GPIO_ReadInputDataBit>
     442:	e000f7b7          	lui	a5,0xe000f
     446:	842a                	mv	s0,a0
     448:	4788                	lw	a0,8(a5)
     44a:	4599                	li	a1,6
     44c:	3161                	jal	d4 <__udivsi3>
     44e:	82c18793          	addi	a5,gp,-2004 # 2000017c <prev_ms.4043>
     452:	4398                	lw	a4,0(a5)
     454:	0fa00693          	li	a3,250
     458:	40e50733          	sub	a4,a0,a4
     45c:	04e6e063          	bltu	a3,a4,49c <EXTI7_0_IRQHandler+0x84>
     460:	81318693          	addi	a3,gp,-2029 # 20000163 <bitcount.4041>
     464:	2298                	lbu	a4,0(a3)
     466:	c388                	sw	a0,0(a5)
     468:	459d                	li	a1,7
     46a:	fff70613          	addi	a2,a4,-1
     46e:	00170793          	addi	a5,a4,1
     472:	0ff67613          	andi	a2,a2,255
     476:	0ff7f793          	andi	a5,a5,255
     47a:	02c5eb63          	bltu	a1,a2,4b0 <EXTI7_0_IRQHandler+0x98>
     47e:	82518713          	addi	a4,gp,-2011 # 20000175 <incoming.4042>
     482:	230c                	lbu	a1,0(a4)
     484:	00c41433          	sll	s0,s0,a2
     488:	a29c                	sb	a5,0(a3)
     48a:	8c4d                	or	s0,s0,a1
     48c:	a300                	sb	s0,0(a4)
     48e:	4509                	li	a0,2
     490:	16c020ef          	jal	ra,25fc <EXTI_ClearITPendingBit>
     494:	4402                	lw	s0,0(sp)
     496:	0111                	addi	sp,sp,4
     498:	30200073          	mret
     49c:	c388                	sw	a0,0(a5)
     49e:	820182a3          	sb	zero,-2011(gp) # 20000175 <incoming.4042>
     4a2:	4705                	li	a4,1
     4a4:	4509                	li	a0,2
     4a6:	80e189a3          	sb	a4,-2029(gp) # 20000163 <bitcount.4041>
     4aa:	152020ef          	jal	ra,25fc <EXTI_ClearITPendingBit>
     4ae:	b7dd                	j	494 <EXTI7_0_IRQHandler+0x7c>
     4b0:	a29c                	sb	a5,0(a3)
     4b2:	472d                	li	a4,11
     4b4:	fce79de3          	bne	a5,a4,48e <EXTI7_0_IRQHandler+0x76>
     4b8:	82418613          	addi	a2,gp,-2012 # 20000174 <head>
     4bc:	221c                	lbu	a5,0(a2)
     4be:	8311c583          	lbu	a1,-1999(gp) # 20000181 <tail>
     4c2:	0785                	addi	a5,a5,1
     4c4:	0ff7f793          	andi	a5,a5,255
     4c8:	0107b713          	sltiu	a4,a5,16
     4cc:	40e00733          	neg	a4,a4
     4d0:	8ff9                	and	a5,a5,a4
     4d2:	82518713          	addi	a4,gp,-2011 # 20000175 <incoming.4042>
     4d6:	00b78863          	beq	a5,a1,4e6 <EXTI7_0_IRQHandler+0xce>
     4da:	2308                	lbu	a0,0(a4)
     4dc:	81418593          	addi	a1,gp,-2028 # 20000164 <buffer>
     4e0:	95be                	add	a1,a1,a5
     4e2:	a188                	sb	a0,0(a1)
     4e4:	a21c                	sb	a5,0(a2)
     4e6:	00068023          	sb	zero,0(a3)
     4ea:	00070023          	sb	zero,0(a4)
     4ee:	b745                	j	48e <EXTI7_0_IRQHandler+0x76>

000004f0 <kbd_available>:
     4f0:	bb1ff2ef          	jal	t0,a0 <__riscv_save_0>
     4f4:	81118413          	addi	s0,gp,-2031 # 20000161 <CharBuffer>
     4f8:	201c                	lbu	a5,0(s0)
     4fa:	8121c703          	lbu	a4,-2030(gp) # 20000162 <UTF8next>
     4fe:	4505                	li	a0,1
     500:	8fd9                	or	a5,a5,a4
     502:	e799                	bnez	a5,510 <kbd_available+0x20>
     504:	31fd                	jal	1f2 <get_iso8859_code>
     506:	0ff57513          	andi	a0,a0,255
     50a:	a008                	sb	a0,0(s0)
     50c:	00a03533          	snez	a0,a0
     510:	be69                	j	aa <__riscv_restore_0>

00000512 <kbd_read>:
     512:	b8fff2ef          	jal	t0,a0 <__riscv_save_0>
     516:	81218413          	addi	s0,gp,-2030 # 20000162 <UTF8next>
     51a:	2008                	lbu	a0,0(s0)
     51c:	c501                	beqz	a0,524 <kbd_read+0x12>
     51e:	00040023          	sb	zero,0(s0)
     522:	b661                	j	aa <__riscv_restore_0>
     524:	81118793          	addi	a5,gp,-2031 # 20000161 <CharBuffer>
     528:	2388                	lbu	a0,0(a5)
     52a:	c10d                	beqz	a0,54c <kbd_read+0x3a>
     52c:	00078023          	sb	zero,0(a5) # e000f000 <__global_pointer$+0xc000e6b0>
     530:	01851793          	slli	a5,a0,0x18
     534:	87e1                	srai	a5,a5,0x18
     536:	fe07d6e3          	bgez	a5,522 <kbd_read+0x10>
     53a:	03f7f793          	andi	a5,a5,63
     53e:	f807e793          	ori	a5,a5,-128
     542:	8119                	srli	a0,a0,0x6
     544:	a01c                	sb	a5,0(s0)
     546:	0c056513          	ori	a0,a0,192
     54a:	b685                	j	aa <__riscv_restore_0>
     54c:	315d                	jal	1f2 <get_iso8859_code>
     54e:	87aa                	mv	a5,a0
     550:	0ff57513          	andi	a0,a0,255
     554:	fe07c3e3          	bltz	a5,53a <kbd_read+0x28>
     558:	f569                	bnez	a0,522 <kbd_read+0x10>
     55a:	557d                	li	a0,-1
     55c:	b7d9                	j	522 <kbd_read+0x10>

0000055e <kbd_init>:
     55e:	b43ff2ef          	jal	t0,a0 <__riscv_save_0>
     562:	678d                	lui	a5,0x3
     564:	fdc10113          	addi	sp,sp,-36
     568:	f4078793          	addi	a5,a5,-192 # 2f40 <PS2Keymap_Japanese>
     56c:	4585                	li	a1,1
     56e:	4545                	li	a0,17
     570:	82f1a423          	sw	a5,-2008(gp) # 20000178 <keymap>
     574:	c402                	sw	zero,8(sp)
     576:	c602                	sw	zero,12(sp)
     578:	c802                	sw	zero,16(sp)
     57a:	ca02                	sw	zero,20(sp)
     57c:	cc02                	sw	zero,24(sp)
     57e:	ce02                	sw	zero,28(sp)
     580:	d002                	sw	zero,32(sp)
     582:	c002                	sw	zero,0(sp)
     584:	c202                	sw	zero,4(sp)
     586:	38a020ef          	jal	ra,2910 <RCC_APB2PeriphClockCmd>
     58a:	04800493          	li	s1,72
     58e:	440d                	li	s0,3
     590:	002c                	addi	a1,sp,8
     592:	4789                	li	a5,2
     594:	40011537          	lui	a0,0x40011
     598:	847c                	sh	a5,8(sp)
     59a:	c826                	sw	s1,16(sp)
     59c:	c622                	sw	s0,12(sp)
     59e:	176020ef          	jal	ra,2714 <GPIO_Init>
     5a2:	4791                	li	a5,4
     5a4:	002c                	addi	a1,sp,8
     5a6:	40011537          	lui	a0,0x40011
     5aa:	847c                	sh	a5,8(sp)
     5ac:	c826                	sw	s1,16(sp)
     5ae:	c622                	sw	s0,12(sp)
     5b0:	164020ef          	jal	ra,2714 <GPIO_Init>
     5b4:	4585                	li	a1,1
     5b6:	4509                	li	a0,2
     5b8:	23e020ef          	jal	ra,27f6 <GPIO_EXTILineConfig>
     5bc:	4789                	li	a5,2
     5be:	4405                	li	s0,1
     5c0:	0848                	addi	a0,sp,20
     5c2:	ca3e                	sw	a5,20(sp)
     5c4:	47b1                	li	a5,12
     5c6:	ce3e                	sw	a5,28(sp)
     5c8:	d022                	sw	s0,32(sp)
     5ca:	cc02                	sw	zero,24(sp)
     5cc:	7a5010ef          	jal	ra,2570 <EXTI_Init>
     5d0:	850a                	mv	a0,sp
     5d2:	11400793          	li	a5,276
     5d6:	807c                	sh	a5,0(sp)
     5d8:	c222                	sw	s0,4(sp)
     5da:	00010123          	sb	zero,2(sp)
     5de:	240020ef          	jal	ra,281e <NVIC_Init>
     5e2:	82018223          	sb	zero,-2012(gp) # 20000174 <head>
     5e6:	820188a3          	sb	zero,-1999(gp) # 20000181 <tail>
     5ea:	02410113          	addi	sp,sp,36
     5ee:	bc75                	j	aa <__riscv_restore_0>

000005f0 <c_gets>:
     5f0:	ab1ff2ef          	jal	t0,a0 <__riscv_save_0>
     5f4:	1171                	addi	sp,sp,-4
     5f6:	8ec18793          	addi	a5,gp,-1812 # 2000023c <lbuf>
     5fa:	4401                	li	s0,0
     5fc:	c03e                	sw	a5,0(sp)
     5fe:	44b5                	li	s1,13
     600:	3f09                	jal	512 <kbd_read>
     602:	01851793          	slli	a5,a0,0x18
     606:	87e1                	srai	a5,a5,0x18
     608:	04978063          	beq	a5,s1,648 <c_gets+0x58>
     60c:	4725                	li	a4,9
     60e:	0ae78663          	beq	a5,a4,6ba <c_gets+0xca>
     612:	4721                	li	a4,8
     614:	00e78663          	beq	a5,a4,620 <c_gets+0x30>
     618:	07f00713          	li	a4,127
     61c:	06e79663          	bne	a5,a4,688 <c_gets+0x98>
     620:	d065                	beqz	s0,600 <c_gets+0x10>
     622:	4521                	li	a0,8
     624:	1df010ef          	jal	ra,2002 <video_putch>
     628:	02000513          	li	a0,32
     62c:	1d7010ef          	jal	ra,2002 <video_putch>
     630:	4521                	li	a0,8
     632:	1d1010ef          	jal	ra,2002 <video_putch>
     636:	3df1                	jal	512 <kbd_read>
     638:	01851793          	slli	a5,a0,0x18
     63c:	147d                	addi	s0,s0,-1
     63e:	87e1                	srai	a5,a5,0x18
     640:	0ff47413          	andi	s0,s0,255
     644:	fc9794e3          	bne	a5,s1,60c <c_gets+0x1c>
     648:	24b010ef          	jal	ra,2092 <video_newline>
     64c:	4782                	lw	a5,0(sp)
     64e:	97a2                	add	a5,a5,s0
     650:	00078023          	sb	zero,0(a5)
     654:	c805                	beqz	s0,684 <c_gets+0x94>
     656:	02000613          	li	a2,32
     65a:	4591                	li	a1,4
     65c:	4502                	lw	a0,0(sp)
     65e:	fff40793          	addi	a5,s0,-1
     662:	0ff7f793          	andi	a5,a5,255
     666:	00f50733          	add	a4,a0,a5
     66a:	00070683          	lb	a3,0(a4)
     66e:	ff768713          	addi	a4,a3,-9
     672:	0ff77713          	andi	a4,a4,255
     676:	04c68b63          	beq	a3,a2,6cc <c_gets+0xdc>
     67a:	04e5f963          	bgeu	a1,a4,6cc <c_gets+0xdc>
     67e:	942a                	add	s0,s0,a0
     680:	00040023          	sb	zero,0(s0)
     684:	0111                	addi	sp,sp,4
     686:	b415                	j	aa <__riscv_restore_0>
     688:	0ff57513          	andi	a0,a0,255
     68c:	fe050713          	addi	a4,a0,-32 # 40010fe0 <__global_pointer$+0x20010690>
     690:	0ff77713          	andi	a4,a4,255
     694:	05e00693          	li	a3,94
     698:	f6e6e4e3          	bltu	a3,a4,600 <c_gets+0x10>
     69c:	04e00713          	li	a4,78
     6a0:	f68760e3          	bltu	a4,s0,600 <c_gets+0x10>
     6a4:	4682                	lw	a3,0(sp)
     6a6:	00140713          	addi	a4,s0,1
     6aa:	0ff77713          	andi	a4,a4,255
     6ae:	9436                	add	s0,s0,a3
     6b0:	a01c                	sb	a5,0(s0)
     6b2:	843a                	mv	s0,a4
     6b4:	14f010ef          	jal	ra,2002 <video_putch>
     6b8:	b7a1                	j	600 <c_gets+0x10>
     6ba:	04e00713          	li	a4,78
     6be:	02000513          	li	a0,32
     6c2:	02000793          	li	a5,32
     6c6:	f2876de3          	bltu	a4,s0,600 <c_gets+0x10>
     6ca:	bfe9                	j	6a4 <c_gets+0xb4>
     6cc:	843e                	mv	s0,a5
     6ce:	b779                	j	65c <c_gets+0x6c>

000006d0 <putnum>:
     6d0:	9d1ff2ef          	jal	t0,a0 <__riscv_save_0>
     6d4:	1141                	addi	sp,sp,-16
     6d6:	c02e                	sw	a1,0(sp)
     6d8:	c602                	sw	zero,12(sp)
     6da:	84aa                	mv	s1,a0
     6dc:	00055963          	bgez	a0,6ee <putnum+0x1e>
     6e0:	40a007b3          	neg	a5,a0
     6e4:	01079493          	slli	s1,a5,0x10
     6e8:	4785                	li	a5,1
     6ea:	84c1                	srai	s1,s1,0x10
     6ec:	c63e                	sw	a5,12(sp)
     6ee:	8ec18793          	addi	a5,gp,-1812 # 2000023c <lbuf>
     6f2:	c43e                	sw	a5,8(sp)
     6f4:	00078323          	sb	zero,6(a5)
     6f8:	4719                	li	a4,6
     6fa:	a019                	j	700 <putnum+0x30>
     6fc:	8722                	mv	a4,s0
     6fe:	84aa                	mv	s1,a0
     700:	45a9                	li	a1,10
     702:	8526                	mv	a0,s1
     704:	fff70413          	addi	s0,a4,-1
     708:	c23a                	sw	a4,4(sp)
     70a:	3c29                	jal	124 <__modsi3>
     70c:	47a2                	lw	a5,8(sp)
     70e:	0ff47413          	andi	s0,s0,255
     712:	03050613          	addi	a2,a0,48
     716:	008786b3          	add	a3,a5,s0
     71a:	8526                	mv	a0,s1
     71c:	a290                	sb	a2,0(a3)
     71e:	45a9                	li	a1,10
     720:	3275                	jal	cc <__divsi3>
     722:	0542                	slli	a0,a0,0x10
     724:	47a5                	li	a5,9
     726:	8541                	srai	a0,a0,0x10
     728:	4712                	lw	a4,4(sp)
     72a:	fc97c9e3          	blt	a5,s1,6fc <putnum+0x2c>
     72e:	47b2                	lw	a5,12(sp)
     730:	cb91                	beqz	a5,744 <putnum+0x74>
     732:	47a2                	lw	a5,8(sp)
     734:	ffe70413          	addi	s0,a4,-2
     738:	0ff47413          	andi	s0,s0,255
     73c:	97a2                	add	a5,a5,s0
     73e:	02d00713          	li	a4,45
     742:	a398                	sb	a4,0(a5)
     744:	4799                	li	a5,6
     746:	4702                	lw	a4,0(sp)
     748:	8f81                	sub	a5,a5,s0
     74a:	c23e                	sw	a5,4(sp)
     74c:	02e7d063          	bge	a5,a4,76c <putnum+0x9c>
     750:	02000513          	li	a0,32
     754:	0af010ef          	jal	ra,2002 <video_putch>
     758:	4782                	lw	a5,0(sp)
     75a:	4712                	lw	a4,4(sp)
     75c:	fff78493          	addi	s1,a5,-1
     760:	01049793          	slli	a5,s1,0x10
     764:	87c1                	srai	a5,a5,0x10
     766:	c03e                	sw	a5,0(sp)
     768:	fef744e3          	blt	a4,a5,750 <putnum+0x80>
     76c:	47a2                	lw	a5,8(sp)
     76e:	943e                	add	s0,s0,a5
     770:	00040503          	lb	a0,0(s0)
     774:	c909                	beqz	a0,786 <putnum+0xb6>
     776:	0ff57513          	andi	a0,a0,255
     77a:	0405                	addi	s0,s0,1
     77c:	087010ef          	jal	ra,2002 <video_putch>
     780:	00040503          	lb	a0,0(s0)
     784:	f96d                	bnez	a0,776 <putnum+0xa6>
     786:	0141                	addi	sp,sp,16
     788:	b20d                	j	aa <__riscv_restore_0>

0000078a <getnum>:
     78a:	917ff2ef          	jal	t0,a0 <__riscv_save_0>
     78e:	4401                	li	s0,0
     790:	8ec18493          	addi	s1,gp,-1812 # 2000023c <lbuf>
     794:	3bbd                	jal	512 <kbd_read>
     796:	01851793          	slli	a5,a0,0x18
     79a:	87e1                	srai	a5,a5,0x18
     79c:	4735                	li	a4,13
     79e:	04e78663          	beq	a5,a4,7ea <getnum+0x60>
     7a2:	4721                	li	a4,8
     7a4:	0ae78e63          	beq	a5,a4,860 <getnum+0xd6>
     7a8:	07f00713          	li	a4,127
     7ac:	0ae78a63          	beq	a5,a4,860 <getnum+0xd6>
     7b0:	c479                	beqz	s0,87e <getnum+0xf4>
     7b2:	4715                	li	a4,5
     7b4:	fe8760e3          	bltu	a4,s0,794 <getnum+0xa>
     7b8:	0ff57513          	andi	a0,a0,255
     7bc:	fd050713          	addi	a4,a0,-48
     7c0:	0ff77713          	andi	a4,a4,255
     7c4:	46a5                	li	a3,9
     7c6:	fce6e7e3          	bltu	a3,a4,794 <getnum+0xa>
     7ca:	00140713          	addi	a4,s0,1
     7ce:	0ff77713          	andi	a4,a4,255
     7d2:	9426                	add	s0,s0,s1
     7d4:	a01c                	sb	a5,0(s0)
     7d6:	843a                	mv	s0,a4
     7d8:	02b010ef          	jal	ra,2002 <video_putch>
     7dc:	3b1d                	jal	512 <kbd_read>
     7de:	01851793          	slli	a5,a0,0x18
     7e2:	87e1                	srai	a5,a5,0x18
     7e4:	4735                	li	a4,13
     7e6:	fae79ee3          	bne	a5,a4,7a2 <getnum+0x18>
     7ea:	9426                	add	s0,s0,s1
     7ec:	0a7010ef          	jal	ra,2092 <video_newline>
     7f0:	00040023          	sb	zero,0(s0)
     7f4:	00048683          	lb	a3,0(s1)
     7f8:	02b00793          	li	a5,43
     7fc:	08f68c63          	beq	a3,a5,894 <getnum+0x10a>
     800:	02d00793          	li	a5,45
     804:	08f69563          	bne	a3,a5,88e <getnum+0x104>
     808:	00148683          	lb	a3,1(s1)
     80c:	4285                	li	t0,1
     80e:	4705                	li	a4,1
     810:	87c18313          	addi	t1,gp,-1924 # 200001cc <err>
     814:	00034583          	lbu	a1,0(t1)
     818:	4601                	li	a2,0
     81a:	4501                	li	a0,0
     81c:	a821                	j	834 <getnum+0xaa>
     81e:	0ff77713          	andi	a4,a4,255
     822:	00e486b3          	add	a3,s1,a4
     826:	00a7d463          	bge	a5,a0,82e <getnum+0xa4>
     82a:	4605                	li	a2,1
     82c:	4589                	li	a1,2
     82e:	00068683          	lb	a3,0(a3)
     832:	853e                	mv	a0,a5
     834:	00251793          	slli	a5,a0,0x2
     838:	97aa                	add	a5,a5,a0
     83a:	fd068393          	addi	t2,a3,-48
     83e:	0786                	slli	a5,a5,0x1
     840:	979e                	add	a5,a5,t2
     842:	07c2                	slli	a5,a5,0x10
     844:	0705                	addi	a4,a4,1
     846:	87c1                	srai	a5,a5,0x10
     848:	faf9                	bnez	a3,81e <getnum+0x94>
     84a:	c219                	beqz	a2,850 <getnum+0xc6>
     84c:	00b30023          	sb	a1,0(t1)
     850:	00028663          	beqz	t0,85c <getnum+0xd2>
     854:	40a00533          	neg	a0,a0
     858:	0542                	slli	a0,a0,0x10
     85a:	8541                	srai	a0,a0,0x10
     85c:	84fff06f          	j	aa <__riscv_restore_0>
     860:	dc21                	beqz	s0,7b8 <getnum+0x2e>
     862:	4521                	li	a0,8
     864:	79e010ef          	jal	ra,2002 <video_putch>
     868:	02000513          	li	a0,32
     86c:	796010ef          	jal	ra,2002 <video_putch>
     870:	147d                	addi	s0,s0,-1
     872:	4521                	li	a0,8
     874:	0ff47413          	andi	s0,s0,255
     878:	78a010ef          	jal	ra,2002 <video_putch>
     87c:	bf21                	j	794 <getnum+0xa>
     87e:	0ff57513          	andi	a0,a0,255
     882:	fd550713          	addi	a4,a0,-43
     886:	0fd77713          	andi	a4,a4,253
     88a:	d321                	beqz	a4,7ca <getnum+0x40>
     88c:	bf05                	j	7bc <getnum+0x32>
     88e:	4281                	li	t0,0
     890:	4701                	li	a4,0
     892:	bfbd                	j	810 <getnum+0x86>
     894:	00148683          	lb	a3,1(s1)
     898:	4281                	li	t0,0
     89a:	4705                	li	a4,1
     89c:	bf95                	j	810 <getnum+0x86>

0000089e <toktoi>:
     89e:	1141                	addi	sp,sp,-16
     8a0:	89c18793          	addi	a5,gp,-1892 # 200001ec <ibuf>
     8a4:	c426                	sw	s1,8(sp)
     8a6:	c622                	sw	s0,12(sp)
     8a8:	8ec18483          	lb	s1,-1812(gp) # 2000023c <lbuf>
     8ac:	c002                	sw	zero,0(sp)
     8ae:	8ec18593          	addi	a1,gp,-1812 # 2000023c <lbuf>
     8b2:	c23e                	sw	a5,4(sp)
     8b4:	42e5                	li	t0,25
     8b6:	10048063          	beqz	s1,9b6 <toktoi+0x118>
     8ba:	02000713          	li	a4,32
     8be:	ff748793          	addi	a5,s1,-9
     8c2:	0ff7f793          	andi	a5,a5,255
     8c6:	0ae48963          	beq	s1,a4,978 <toktoi+0xda>
     8ca:	4691                	li	a3,4
     8cc:	0af6f663          	bgeu	a3,a5,978 <toktoi+0xda>
     8d0:	200007b7          	lui	a5,0x20000
     8d4:	05c78413          	addi	s0,a5,92 # 2000005c <kwtbl>
     8d8:	4381                	li	t2,0
     8da:	00042303          	lw	t1,0(s0)
     8de:	00030503          	lb	a0,0(t1)
     8e2:	cd59                	beqz	a0,980 <toktoi+0xe2>
     8e4:	86a6                	mv	a3,s1
     8e6:	862e                	mv	a2,a1
     8e8:	0ff6f793          	andi	a5,a3,255
     8ec:	f9f78713          	addi	a4,a5,-97
     8f0:	0ff77713          	andi	a4,a4,255
     8f4:	1781                	addi	a5,a5,-32
     8f6:	00e2e563          	bltu	t0,a4,900 <toktoi+0x62>
     8fa:	01879693          	slli	a3,a5,0x18
     8fe:	86e1                	srai	a3,a3,0x18
     900:	00a69a63          	bne	a3,a0,914 <toktoi+0x76>
     904:	0305                	addi	t1,t1,1
     906:	00030503          	lb	a0,0(t1)
     90a:	0605                	addi	a2,a2,1
     90c:	c93d                	beqz	a0,982 <toktoi+0xe4>
     90e:	00060683          	lb	a3,0(a2)
     912:	bfd9                	j	8e8 <toktoi+0x4a>
     914:	0385                	addi	t2,t2,1
     916:	0ff3f393          	andi	t2,t2,255
     91a:	02400793          	li	a5,36
     91e:	0411                	addi	s0,s0,4
     920:	faf39de3          	bne	t2,a5,8da <toktoi+0x3c>
     924:	00030783          	lb	a5,0(t1)
     928:	862e                	mv	a2,a1
     92a:	c7c1                	beqz	a5,9b2 <toktoi+0x114>
     92c:	0ff4f693          	andi	a3,s1,255
     930:	fd068793          	addi	a5,a3,-48
     934:	0ff7f793          	andi	a5,a5,255
     938:	4725                	li	a4,9
     93a:	0ef77063          	bgeu	a4,a5,a1a <toktoi+0x17c>
     93e:	02200793          	li	a5,34
     942:	10f48f63          	beq	s1,a5,a60 <toktoi+0x1c2>
     946:	02700793          	li	a5,39
     94a:	10f48b63          	beq	s1,a5,a60 <toktoi+0x1c2>
     94e:	fdf6f713          	andi	a4,a3,-33
     952:	fbf70713          	addi	a4,a4,-65
     956:	f9f68793          	addi	a5,a3,-97
     95a:	0ff77713          	andi	a4,a4,255
     95e:	45e5                	li	a1,25
     960:	0ff7f793          	andi	a5,a5,255
     964:	04e5fc63          	bgeu	a1,a4,9bc <toktoi+0x11e>
     968:	4432                	lw	s0,12(sp)
     96a:	4751                	li	a4,20
     96c:	86e18e23          	sb	a4,-1924(gp) # 200001cc <err>
     970:	44a2                	lw	s1,8(sp)
     972:	4501                	li	a0,0
     974:	0141                	addi	sp,sp,16
     976:	8082                	ret
     978:	0585                	addi	a1,a1,1
     97a:	00058483          	lb	s1,0(a1)
     97e:	b781                	j	8be <toktoi+0x20>
     980:	862e                	mv	a2,a1
     982:	4702                	lw	a4,0(sp)
     984:	04e00793          	li	a5,78
     988:	1ee7e863          	bltu	a5,a4,b78 <toktoi+0x2da>
     98c:	4592                	lw	a1,4(sp)
     98e:	4782                	lw	a5,0(sp)
     990:	46a1                	li	a3,8
     992:	00060483          	lb	s1,0(a2)
     996:	00f58733          	add	a4,a1,a5
     99a:	00770023          	sb	t2,0(a4)
     99e:	0785                	addi	a5,a5,1
     9a0:	0ff7f793          	andi	a5,a5,255
     9a4:	872e                	mv	a4,a1
     9a6:	1ed38163          	beq	t2,a3,b88 <toktoi+0x2ea>
     9aa:	c03e                	sw	a5,0(sp)
     9ac:	00030783          	lb	a5,0(t1)
     9b0:	ffb5                	bnez	a5,92c <toktoi+0x8e>
     9b2:	85b2                	mv	a1,a2
     9b4:	f099                	bnez	s1,8ba <toktoi+0x1c>
     9b6:	89c18713          	addi	a4,gp,-1892 # 200001ec <ibuf>
     9ba:	a4b1                	j	c06 <toktoi+0x368>
     9bc:	4582                	lw	a1,0(sp)
     9be:	04d00713          	li	a4,77
     9c2:	1ab76b63          	bltu	a4,a1,b78 <toktoi+0x2da>
     9c6:	4582                	lw	a1,0(sp)
     9c8:	470d                	li	a4,3
     9ca:	00b77a63          	bgeu	a4,a1,9de <toktoi+0x140>
     9ce:	4712                	lw	a4,4(sp)
     9d0:	02500513          	li	a0,37
     9d4:	95ba                	add	a1,a1,a4
     9d6:	ffe5c703          	lbu	a4,-2(a1)
     9da:	18a70563          	beq	a4,a0,b64 <toktoi+0x2c6>
     9de:	4702                	lw	a4,0(sp)
     9e0:	4592                	lw	a1,4(sp)
     9e2:	02500513          	li	a0,37
     9e6:	95ba                	add	a1,a1,a4
     9e8:	a188                	sb	a0,0(a1)
     9ea:	0705                	addi	a4,a4,1
     9ec:	45e5                	li	a1,25
     9ee:	0ff77713          	andi	a4,a4,255
     9f2:	00f5f663          	bgeu	a1,a5,9fe <toktoi+0x160>
     9f6:	fbf68793          	addi	a5,a3,-65
     9fa:	0ff7f793          	andi	a5,a5,255
     9fe:	4682                	lw	a3,0(sp)
     a00:	4592                	lw	a1,4(sp)
     a02:	00160483          	lb	s1,1(a2)
     a06:	0689                	addi	a3,a3,2
     a08:	972e                	add	a4,a4,a1
     a0a:	0ff6f693          	andi	a3,a3,255
     a0e:	c036                	sw	a3,0(sp)
     a10:	a31c                	sb	a5,0(a4)
     a12:	00160593          	addi	a1,a2,1
     a16:	42e5                	li	t0,25
     a18:	bd79                	j	8b6 <toktoi+0x18>
     a1a:	4681                	li	a3,0
     a1c:	fd048793          	addi	a5,s1,-48
     a20:	45a5                	li	a1,9
     a22:	a811                	j	a36 <toktoi+0x198>
     a24:	00060483          	lb	s1,0(a2)
     a28:	86be                	mv	a3,a5
     a2a:	fd048793          	addi	a5,s1,-48
     a2e:	0ff7f513          	andi	a0,a5,255
     a32:	0ea5e663          	bltu	a1,a0,b1e <toktoi+0x280>
     a36:	00269713          	slli	a4,a3,0x2
     a3a:	9736                	add	a4,a4,a3
     a3c:	0706                	slli	a4,a4,0x1
     a3e:	973e                	add	a4,a4,a5
     a40:	0742                	slli	a4,a4,0x10
     a42:	8341                	srli	a4,a4,0x10
     a44:	01071793          	slli	a5,a4,0x10
     a48:	87c1                	srai	a5,a5,0x10
     a4a:	0605                	addi	a2,a2,1
     a4c:	fcd7dce3          	bge	a5,a3,a24 <toktoi+0x186>
     a50:	4432                	lw	s0,12(sp)
     a52:	4709                	li	a4,2
     a54:	86e18e23          	sb	a4,-1924(gp) # 200001cc <err>
     a58:	44a2                	lw	s1,8(sp)
     a5a:	4501                	li	a0,0
     a5c:	0141                	addi	sp,sp,16
     a5e:	8082                	ret
     a60:	00160503          	lb	a0,1(a2)
     a64:	00160593          	addi	a1,a2,1
     a68:	1aa48f63          	beq	s1,a0,c26 <toktoi+0x388>
     a6c:	fe050793          	addi	a5,a0,-32
     a70:	0ff7f793          	andi	a5,a5,255
     a74:	05e00713          	li	a4,94
     a78:	1af76763          	bltu	a4,a5,c26 <toktoi+0x388>
     a7c:	872e                	mv	a4,a1
     a7e:	4681                	li	a3,0
     a80:	05e00393          	li	t2,94
     a84:	a021                	j	a8c <toktoi+0x1ee>
     a86:	02f3e063          	bltu	t2,a5,aa6 <toktoi+0x208>
     a8a:	8696                	mv	a3,t0
     a8c:	0705                	addi	a4,a4,1
     a8e:	00070303          	lb	t1,0(a4)
     a92:	00168613          	addi	a2,a3,1
     a96:	0ff67293          	andi	t0,a2,255
     a9a:	fe030793          	addi	a5,t1,-32
     a9e:	0ff7f793          	andi	a5,a5,255
     aa2:	fe9312e3          	bne	t1,s1,a86 <toktoi+0x1e8>
     aa6:	4402                	lw	s0,0(sp)
     aa8:	04f00793          	li	a5,79
     aac:	405787b3          	sub	a5,a5,t0
     ab0:	0cf45463          	bge	s0,a5,b78 <toktoi+0x2da>
     ab4:	4392                	lw	t2,4(sp)
     ab6:	00140793          	addi	a5,s0,1
     aba:	0ff7f793          	andi	a5,a5,255
     abe:	00838733          	add	a4,t2,s0
     ac2:	02600313          	li	t1,38
     ac6:	00670023          	sb	t1,0(a4)
     aca:	979e                	add	a5,a5,t2
     acc:	00240713          	addi	a4,s0,2
     ad0:	00578023          	sb	t0,0(a5)
     ad4:	0ff77793          	andi	a5,a4,255
     ad8:	18028e63          	beqz	t0,c74 <toktoi+0x3d6>
     adc:	00340393          	addi	t2,s0,3
     ae0:	007682b3          	add	t0,a3,t2
     ae4:	0ff2f293          	andi	t0,t0,255
     ae8:	832e                	mv	t1,a1
     aea:	a019                	j	af0 <toktoi+0x252>
     aec:	00030503          	lb	a0,0(t1)
     af0:	4712                	lw	a4,4(sp)
     af2:	00178413          	addi	s0,a5,1
     af6:	0305                	addi	t1,t1,1
     af8:	973e                	add	a4,a4,a5
     afa:	a308                	sb	a0,0(a4)
     afc:	0ff47793          	andi	a5,s0,255
     b00:	fe5796e3          	bne	a5,t0,aec <toktoi+0x24e>
     b04:	93b6                	add	t2,t2,a3
     b06:	96ae                	add	a3,a3,a1
     b08:	00168503          	lb	a0,1(a3)
     b0c:	0ff3f793          	andi	a5,t2,255
     b10:	95b2                	add	a1,a1,a2
     b12:	c03e                	sw	a5,0(sp)
     b14:	04a48d63          	beq	s1,a0,b6e <toktoi+0x2d0>
     b18:	84aa                	mv	s1,a0
     b1a:	42e5                	li	t0,25
     b1c:	bb69                	j	8b6 <toktoi+0x18>
     b1e:	4402                	lw	s0,0(sp)
     b20:	04c00793          	li	a5,76
     b24:	0487ea63          	bltu	a5,s0,b78 <toktoi+0x2da>
     b28:	4292                	lw	t0,4(sp)
     b2a:	00140593          	addi	a1,s0,1
     b2e:	0ff5f593          	andi	a1,a1,255
     b32:	00828533          	add	a0,t0,s0
     b36:	02400313          	li	t1,36
     b3a:	9596                	add	a1,a1,t0
     b3c:	00650023          	sb	t1,0(a0)
     b40:	00240793          	addi	a5,s0,2
     b44:	a198                	sb	a4,0(a1)
     b46:	0ff7f793          	andi	a5,a5,255
     b4a:	00340593          	addi	a1,s0,3
     b4e:	00f28733          	add	a4,t0,a5
     b52:	4086d793          	srai	a5,a3,0x8
     b56:	0ff5f693          	andi	a3,a1,255
     b5a:	c036                	sw	a3,0(sp)
     b5c:	a31c                	sb	a5,0(a4)
     b5e:	85b2                	mv	a1,a2
     b60:	42e5                	li	t0,25
     b62:	bb91                	j	8b6 <toktoi+0x18>
     b64:	ffc5c583          	lbu	a1,-4(a1)
     b68:	e6e59be3          	bne	a1,a4,9de <toktoi+0x140>
     b6c:	bbf5                	j	968 <toktoi+0xca>
     b6e:	00158483          	lb	s1,1(a1)
     b72:	42e5                	li	t0,25
     b74:	0585                	addi	a1,a1,1
     b76:	b381                	j	8b6 <toktoi+0x18>
     b78:	4432                	lw	s0,12(sp)
     b7a:	4711                	li	a4,4
     b7c:	86e18e23          	sb	a4,-1924(gp) # 200001cc <err>
     b80:	44a2                	lw	s1,8(sp)
     b82:	4501                	li	a0,0
     b84:	0141                	addi	sp,sp,16
     b86:	8082                	ret
     b88:	02000513          	li	a0,32
     b8c:	4591                	li	a1,4
     b8e:	ff748693          	addi	a3,s1,-9
     b92:	0ff6f693          	andi	a3,a3,255
     b96:	0605                	addi	a2,a2,1
     b98:	08a48463          	beq	s1,a0,c20 <toktoi+0x382>
     b9c:	08d5f263          	bgeu	a1,a3,c20 <toktoi+0x382>
     ba0:	ccc5                	beqz	s1,c58 <toktoi+0x3ba>
     ba2:	8532                	mv	a0,a2
     ba4:	4581                	li	a1,0
     ba6:	a011                	j	baa <toktoi+0x30c>
     ba8:	85b6                	mv	a1,a3
     baa:	0505                	addi	a0,a0,1
     bac:	fff50303          	lb	t1,-1(a0)
     bb0:	00158693          	addi	a3,a1,1
     bb4:	0ff6f693          	andi	a3,a3,255
     bb8:	fe0318e3          	bnez	t1,ba8 <toktoi+0x30a>
     bbc:	04e00513          	li	a0,78
     bc0:	8d15                	sub	a0,a0,a3
     bc2:	faa7dbe3          	bge	a5,a0,b78 <toktoi+0x2da>
     bc6:	4512                	lw	a0,4(sp)
     bc8:	4402                	lw	s0,0(sp)
     bca:	953e                	add	a0,a0,a5
     bcc:	a114                	sb	a3,0(a0)
     bce:	00240793          	addi	a5,s0,2
     bd2:	0ff7f793          	andi	a5,a5,255
     bd6:	c2dd                	beqz	a3,c7c <toktoi+0x3de>
     bd8:	00340693          	addi	a3,s0,3
     bdc:	00d58333          	add	t1,a1,a3
     be0:	0ff37313          	andi	t1,t1,255
     be4:	a021                	j	bec <toktoi+0x34e>
     be6:	00060483          	lb	s1,0(a2)
     bea:	0605                	addi	a2,a2,1
     bec:	4512                	lw	a0,4(sp)
     bee:	00178293          	addi	t0,a5,1
     bf2:	953e                	add	a0,a0,a5
     bf4:	a104                	sb	s1,0(a0)
     bf6:	0ff2f793          	andi	a5,t0,255
     bfa:	fe6796e3          	bne	a5,t1,be6 <toktoi+0x348>
     bfe:	96ae                	add	a3,a3,a1
     c00:	0ff6f793          	andi	a5,a3,255
     c04:	c03e                	sw	a5,0(sp)
     c06:	4782                	lw	a5,0(sp)
     c08:	00178513          	addi	a0,a5,1
     c0c:	973e                	add	a4,a4,a5
     c0e:	02700793          	li	a5,39
     c12:	a31c                	sb	a5,0(a4)
     c14:	4432                	lw	s0,12(sp)
     c16:	44a2                	lw	s1,8(sp)
     c18:	0ff57513          	andi	a0,a0,255
     c1c:	0141                	addi	sp,sp,16
     c1e:	8082                	ret
     c20:	00060483          	lb	s1,0(a2)
     c24:	b7ad                	j	b8e <toktoi+0x2f0>
     c26:	4702                	lw	a4,0(sp)
     c28:	04e00793          	li	a5,78
     c2c:	f4e7c6e3          	blt	a5,a4,b78 <toktoi+0x2da>
     c30:	4602                	lw	a2,0(sp)
     c32:	4412                	lw	s0,4(sp)
     c34:	02600693          	li	a3,38
     c38:	00160793          	addi	a5,a2,1
     c3c:	00c40733          	add	a4,s0,a2
     c40:	a314                	sb	a3,0(a4)
     c42:	0ff7f793          	andi	a5,a5,255
     c46:	00260713          	addi	a4,a2,2
     c4a:	97a2                	add	a5,a5,s0
     c4c:	0ff77713          	andi	a4,a4,255
     c50:	c03a                	sw	a4,0(sp)
     c52:	00078023          	sb	zero,0(a5)
     c56:	bd7d                	j	b14 <toktoi+0x276>
     c58:	04d00693          	li	a3,77
     c5c:	f0f6eee3          	bltu	a3,a5,b78 <toktoi+0x2da>
     c60:	4682                	lw	a3,0(sp)
     c62:	4612                	lw	a2,4(sp)
     c64:	0689                	addi	a3,a3,2
     c66:	97b2                	add	a5,a5,a2
     c68:	0ff6f693          	andi	a3,a3,255
     c6c:	c036                	sw	a3,0(sp)
     c6e:	00078023          	sb	zero,0(a5)
     c72:	bf51                	j	c06 <toktoi+0x368>
     c74:	84aa                	mv	s1,a0
     c76:	c03e                	sw	a5,0(sp)
     c78:	42e5                	li	t0,25
     c7a:	b935                	j	8b6 <toktoi+0x18>
     c7c:	c03e                	sw	a5,0(sp)
     c7e:	b761                	j	c06 <toktoi+0x368>

00000c80 <inslist>:
     c80:	93c18313          	addi	t1,gp,-1732 # 2000028c <listbuf>
     c84:	00034703          	lbu	a4,0(t1)
     c88:	1161                	addi	sp,sp,-8
     c8a:	c222                	sw	s0,4(sp)
     c8c:	c026                	sw	s1,0(sp)
     c8e:	89c18593          	addi	a1,gp,-1892 # 200001ec <ibuf>
     c92:	2190                	lbu	a2,0(a1)
     c94:	12070663          	beqz	a4,dc0 <inslist+0x140>
     c98:	853a                	mv	a0,a4
     c9a:	93c18793          	addi	a5,gp,-1732 # 2000028c <listbuf>
     c9e:	97aa                	add	a5,a5,a0
     ca0:	2388                	lbu	a0,0(a5)
     ca2:	fd75                	bnez	a0,c9e <inslist+0x1e>
     ca4:	40f307b3          	sub	a5,t1,a5
     ca8:	1ff78793          	addi	a5,a5,511
     cac:	07c2                	slli	a5,a5,0x10
     cae:	87c1                	srai	a5,a5,0x10
     cb0:	0ac7c863          	blt	a5,a2,d60 <inslist+0xe0>
     cb4:	10060363          	beqz	a2,dba <inslist+0x13a>
     cb8:	21a8                	lbu	a0,2(a1)
     cba:	319c                	lbu	a5,1(a1)
     cbc:	0522                	slli	a0,a0,0x8
     cbe:	8d5d                	or	a0,a0,a5
     cc0:	0542                	slli	a0,a0,0x10
     cc2:	8541                	srai	a0,a0,0x10
     cc4:	a029                	j	cce <inslist+0x4e>
     cc6:	933a                	add	t1,t1,a4
     cc8:	00034703          	lbu	a4,0(t1)
     ccc:	c34d                	beqz	a4,d6e <inslist+0xee>
     cce:	00234783          	lbu	a5,2(t1)
     cd2:	00134283          	lbu	t0,1(t1)
     cd6:	07a2                	slli	a5,a5,0x8
     cd8:	0057e7b3          	or	a5,a5,t0
     cdc:	07c2                	slli	a5,a5,0x10
     cde:	87c1                	srai	a5,a5,0x10
     ce0:	fea7c3e3          	blt	a5,a0,cc6 <inslist+0x46>
     ce4:	08a78963          	beq	a5,a0,d76 <inslist+0xf6>
     ce8:	4791                	li	a5,4
     cea:	06f60763          	beq	a2,a5,d58 <inslist+0xd8>
     cee:	00034703          	lbu	a4,0(t1)
     cf2:	c76d                	beqz	a4,ddc <inslist+0x15c>
     cf4:	879a                	mv	a5,t1
     cf6:	97ba                	add	a5,a5,a4
     cf8:	2398                	lbu	a4,0(a5)
     cfa:	ff75                	bnez	a4,cf6 <inslist+0x76>
     cfc:	40678533          	sub	a0,a5,t1
     d00:	01051393          	slli	t2,a0,0x10
     d04:	62c1                	lui	t0,0x10
     d06:	0542                	slli	a0,a0,0x10
     d08:	0103d393          	srli	t2,t2,0x10
     d0c:	12fd                	addi	t0,t0,-1
     d0e:	00c78733          	add	a4,a5,a2
     d12:	8541                	srai	a0,a0,0x10
     d14:	02538163          	beq	t2,t0,d36 <inslist+0xb6>
     d18:	0542                	slli	a0,a0,0x10
     d1a:	8141                	srli	a0,a0,0x10
     d1c:	fff54513          	not	a0,a0
     d20:	953a                	add	a0,a0,a4
     d22:	4281                	li	t0,0
     d24:	a019                	j	d2a <inslist+0xaa>
     d26:	0007c283          	lbu	t0,0(a5)
     d2a:	177d                	addi	a4,a4,-1
     d2c:	005700a3          	sb	t0,1(a4)
     d30:	17fd                	addi	a5,a5,-1
     d32:	fea71ae3          	bne	a4,a0,d26 <inslist+0xa6>
     d36:	fff60793          	addi	a5,a2,-1
     d3a:	07c2                	slli	a5,a5,0x10
     d3c:	83c1                	srli	a5,a5,0x10
     d3e:	ce09                	beqz	a2,d58 <inslist+0xd8>
     d40:	0785                	addi	a5,a5,1
     d42:	95be                	add	a1,a1,a5
     d44:	89c18693          	addi	a3,gp,-1892 # 200001ec <ibuf>
     d48:	a011                	j	d4c <inslist+0xcc>
     d4a:	2290                	lbu	a2,0(a3)
     d4c:	0305                	addi	t1,t1,1
     d4e:	0685                	addi	a3,a3,1
     d50:	fec30fa3          	sb	a2,-1(t1)
     d54:	feb69be3          	bne	a3,a1,d4a <inslist+0xca>
     d58:	4412                	lw	s0,4(sp)
     d5a:	4482                	lw	s1,0(sp)
     d5c:	0121                	addi	sp,sp,8
     d5e:	8082                	ret
     d60:	4412                	lw	s0,4(sp)
     d62:	4715                	li	a4,5
     d64:	86e18e23          	sb	a4,-1924(gp) # 200001cc <err>
     d68:	4482                	lw	s1,0(sp)
     d6a:	0121                	addi	sp,sp,8
     d6c:	8082                	ret
     d6e:	67a1                	lui	a5,0x8
     d70:	17fd                	addi	a5,a5,-1
     d72:	f6a79be3          	bne	a5,a0,ce8 <inslist+0x68>
     d76:	00e30433          	add	s0,t1,a4
     d7a:	00044283          	lbu	t0,0(s0)
     d7e:	879a                	mv	a5,t1
     d80:	02028a63          	beqz	t0,db4 <inslist+0x134>
     d84:	fff28713          	addi	a4,t0,-1 # ffff <_data_lma+0xc317>
     d88:	0742                	slli	a4,a4,0x10
     d8a:	8341                	srli	a4,a4,0x10
     d8c:	00170493          	addi	s1,a4,1
     d90:	009783b3          	add	t2,a5,s1
     d94:	8522                	mv	a0,s0
     d96:	a019                	j	d9c <inslist+0x11c>
     d98:	00054283          	lbu	t0,0(a0)
     d9c:	0785                	addi	a5,a5,1
     d9e:	fe578fa3          	sb	t0,-1(a5) # 7fff <_data_lma+0x4317>
     da2:	0505                	addi	a0,a0,1
     da4:	fef39ae3          	bne	t2,a5,d98 <inslist+0x118>
     da8:	9722                	add	a4,a4,s0
     daa:	00174283          	lbu	t0,1(a4)
     dae:	9426                	add	s0,s0,s1
     db0:	fc029ae3          	bnez	t0,d84 <inslist+0x104>
     db4:	00078023          	sb	zero,0(a5)
     db8:	bf05                	j	ce8 <inslist+0x68>
     dba:	6521                	lui	a0,0x8
     dbc:	157d                	addi	a0,a0,-1
     dbe:	bf01                	j	cce <inslist+0x4e>
     dc0:	93c18313          	addi	t1,gp,-1732 # 2000028c <listbuf>
     dc4:	93c18793          	addi	a5,gp,-1732 # 2000028c <listbuf>
     dc8:	d675                	beqz	a2,db4 <inslist+0x134>
     dca:	21a8                	lbu	a0,2(a1)
     dcc:	319c                	lbu	a5,1(a1)
     dce:	0522                	slli	a0,a0,0x8
     dd0:	8d5d                	or	a0,a0,a5
     dd2:	0542                	slli	a0,a0,0x10
     dd4:	67a1                	lui	a5,0x8
     dd6:	8541                	srai	a0,a0,0x10
     dd8:	17fd                	addi	a5,a5,-1
     dda:	b729                	j	ce4 <inslist+0x64>
     ddc:	00c30733          	add	a4,t1,a2
     de0:	879a                	mv	a5,t1
     de2:	4501                	li	a0,0
     de4:	bf15                	j	d18 <inslist+0x98>

00000de6 <putlist>:
     de6:	abaff2ef          	jal	t0,a0 <__riscv_save_0>
     dea:	211c                	lbu	a5,0(a0)
     dec:	1151                	addi	sp,sp,-12
     dee:	842a                	mv	s0,a0
     df0:	02700713          	li	a4,39
     df4:	0ae78c63          	beq	a5,a4,eac <putlist+0xc6>
     df8:	02300713          	li	a4,35
     dfc:	0af77b63          	bgeu	a4,a5,eb2 <putlist+0xcc>
     e00:	02400713          	li	a4,36
     e04:	14e78b63          	beq	a5,a4,f5a <putlist+0x174>
     e08:	02500713          	li	a4,37
     e0c:	10e78563          	beq	a5,a4,f16 <putlist+0x130>
     e10:	02600713          	li	a4,38
     e14:	18e79963          	bne	a5,a4,fa6 <putlist+0x1c0>
     e18:	301c                	lbu	a5,1(s0)
     e1a:	0e078a63          	beqz	a5,f0e <putlist+0x128>
     e1e:	00f40733          	add	a4,s0,a5
     e22:	3314                	lbu	a3,1(a4)
     e24:	02200713          	li	a4,34
     e28:	02e68163          	beq	a3,a4,e4a <putlist+0x64>
     e2c:	17fd                	addi	a5,a5,-1
     e2e:	0ff7f793          	andi	a5,a5,255
     e32:	0785                	addi	a5,a5,1
     e34:	97a2                	add	a5,a5,s0
     e36:	00140693          	addi	a3,s0,1
     e3a:	02200613          	li	a2,34
     e3e:	0cd78863          	beq	a5,a3,f0e <putlist+0x128>
     e42:	17fd                	addi	a5,a5,-1
     e44:	3398                	lbu	a4,1(a5)
     e46:	fec71ce3          	bne	a4,a2,e3e <putlist+0x58>
     e4a:	02700793          	li	a5,39
     e4e:	c03e                	sw	a5,0(sp)
     e50:	4502                	lw	a0,0(sp)
     e52:	00240493          	addi	s1,s0,2
     e56:	1ac010ef          	jal	ra,2002 <video_putch>
     e5a:	301c                	lbu	a5,1(s0)
     e5c:	c226                	sw	s1,4(sp)
     e5e:	fff78713          	addi	a4,a5,-1 # 7fff <_data_lma+0x4317>
     e62:	0ff77713          	andi	a4,a4,255
     e66:	c43a                	sw	a4,8(sp)
     e68:	12078b63          	beqz	a5,f9e <putlist+0x1b8>
     e6c:	00370793          	addi	a5,a4,3
     e70:	943e                	add	s0,s0,a5
     e72:	0485                	addi	s1,s1,1
     e74:	fff4c503          	lbu	a0,-1(s1)
     e78:	18a010ef          	jal	ra,2002 <video_putch>
     e7c:	fe849be3          	bne	s1,s0,e72 <putlist+0x8c>
     e80:	47a2                	lw	a5,8(sp)
     e82:	00178413          	addi	s0,a5,1
     e86:	4792                	lw	a5,4(sp)
     e88:	943e                	add	s0,s0,a5
     e8a:	4502                	lw	a0,0(sp)
     e8c:	176010ef          	jal	ra,2002 <video_putch>
     e90:	201c                	lbu	a5,0(s0)
     e92:	02500713          	li	a4,37
     e96:	f4e79de3          	bne	a5,a4,df0 <putlist+0xa>
     e9a:	02000513          	li	a0,32
     e9e:	164010ef          	jal	ra,2002 <video_putch>
     ea2:	201c                	lbu	a5,0(s0)
     ea4:	02700713          	li	a4,39
     ea8:	f4e798e3          	bne	a5,a4,df8 <putlist+0x12>
     eac:	0131                	addi	sp,sp,12
     eae:	9fcff06f          	j	aa <__riscv_restore_0>
     eb2:	200006b7          	lui	a3,0x20000
     eb6:	00279713          	slli	a4,a5,0x2
     eba:	05c68693          	addi	a3,a3,92 # 2000005c <kwtbl>
     ebe:	9736                	add	a4,a4,a3
     ec0:	4304                	lw	s1,0(a4)
     ec2:	00048503          	lb	a0,0(s1)
     ec6:	cd71                	beqz	a0,fa2 <putlist+0x1bc>
     ec8:	0ff57513          	andi	a0,a0,255
     ecc:	0485                	addi	s1,s1,1
     ece:	134010ef          	jal	ra,2002 <video_putch>
     ed2:	00048503          	lb	a0,0(s1)
     ed6:	f96d                	bnez	a0,ec8 <putlist+0xe2>
     ed8:	200c                	lbu	a1,0(s0)
     eda:	660d                	lui	a2,0x3
     edc:	24060793          	addi	a5,a2,576 # 3240 <i_nsa>
     ee0:	07c9                	addi	a5,a5,18
     ee2:	24060613          	addi	a2,a2,576
     ee6:	a011                	j	eea <putlist+0x104>
     ee8:	87b6                	mv	a5,a3
     eea:	2398                	lbu	a4,0(a5)
     eec:	fff78693          	addi	a3,a5,-1
     ef0:	00b70963          	beq	a4,a1,f02 <putlist+0x11c>
     ef4:	fec79ae3          	bne	a5,a2,ee8 <putlist+0x102>
     ef8:	02000513          	li	a0,32
     efc:	106010ef          	jal	ra,2002 <video_putch>
     f00:	200c                	lbu	a1,0(s0)
     f02:	4721                	li	a4,8
     f04:	301c                	lbu	a5,1(s0)
     f06:	0ae58663          	beq	a1,a4,fb2 <putlist+0x1cc>
     f0a:	0405                	addi	s0,s0,1
     f0c:	b5d5                	j	df0 <putlist+0xa>
     f0e:	02200793          	li	a5,34
     f12:	c03e                	sw	a5,0(sp)
     f14:	bf35                	j	e50 <putlist+0x6a>
     f16:	3008                	lbu	a0,1(s0)
     f18:	00240493          	addi	s1,s0,2
     f1c:	04150513          	addi	a0,a0,65 # 8041 <_data_lma+0x4359>
     f20:	0ff57513          	andi	a0,a0,255
     f24:	0de010ef          	jal	ra,2002 <video_putch>
     f28:	678d                	lui	a5,0x3
     f2a:	25478713          	addi	a4,a5,596 # 3254 <i_nsb>
     f2e:	2030                	lbu	a2,2(s0)
     f30:	0739                	addi	a4,a4,14
     f32:	25478593          	addi	a1,a5,596
     f36:	a011                	j	f3a <putlist+0x154>
     f38:	8736                	mv	a4,a3
     f3a:	231c                	lbu	a5,0(a4)
     f3c:	fff70693          	addi	a3,a4,-1
     f40:	00f60b63          	beq	a2,a5,f56 <putlist+0x170>
     f44:	feb71ae3          	bne	a4,a1,f38 <putlist+0x152>
     f48:	02000513          	li	a0,32
     f4c:	0b6010ef          	jal	ra,2002 <video_putch>
     f50:	203c                	lbu	a5,2(s0)
     f52:	8426                	mv	s0,s1
     f54:	bd71                	j	df0 <putlist+0xa>
     f56:	8426                	mv	s0,s1
     f58:	bd61                	j	df0 <putlist+0xa>
     f5a:	2028                	lbu	a0,2(s0)
     f5c:	301c                	lbu	a5,1(s0)
     f5e:	4581                	li	a1,0
     f60:	0522                	slli	a0,a0,0x8
     f62:	8d5d                	or	a0,a0,a5
     f64:	0542                	slli	a0,a0,0x10
     f66:	8541                	srai	a0,a0,0x10
     f68:	f68ff0ef          	jal	ra,6d0 <putnum>
     f6c:	678d                	lui	a5,0x3
     f6e:	25478713          	addi	a4,a5,596 # 3254 <i_nsb>
     f72:	00340493          	addi	s1,s0,3
     f76:	3030                	lbu	a2,3(s0)
     f78:	0739                	addi	a4,a4,14
     f7a:	25478593          	addi	a1,a5,596
     f7e:	a011                	j	f82 <putlist+0x19c>
     f80:	8736                	mv	a4,a3
     f82:	231c                	lbu	a5,0(a4)
     f84:	fff70693          	addi	a3,a4,-1
     f88:	fcf607e3          	beq	a2,a5,f56 <putlist+0x170>
     f8c:	feb71ae3          	bne	a4,a1,f80 <putlist+0x19a>
     f90:	02000513          	li	a0,32
     f94:	06e010ef          	jal	ra,2002 <video_putch>
     f98:	303c                	lbu	a5,3(s0)
     f9a:	8426                	mv	s0,s1
     f9c:	bd91                	j	df0 <putlist+0xa>
     f9e:	4412                	lw	s0,4(sp)
     fa0:	b5ed                	j	e8a <putlist+0xa4>
     fa2:	85be                	mv	a1,a5
     fa4:	bf1d                	j	eda <putlist+0xf4>
     fa6:	4755                	li	a4,21
     fa8:	86e18e23          	sb	a4,-1924(gp) # 200001cc <err>
     fac:	0131                	addi	sp,sp,12
     fae:	8fcff06f          	j	aa <__riscv_restore_0>
     fb2:	fff78713          	addi	a4,a5,-1
     fb6:	0ff77713          	andi	a4,a4,255
     fba:	070d                	addi	a4,a4,3
     fbc:	00240493          	addi	s1,s0,2
     fc0:	943a                	add	s0,s0,a4
     fc2:	ee0785e3          	beqz	a5,eac <putlist+0xc6>
     fc6:	0485                	addi	s1,s1,1
     fc8:	fff4c503          	lbu	a0,-1(s1)
     fcc:	036010ef          	jal	ra,2002 <video_putch>
     fd0:	fe941be3          	bne	s0,s1,fc6 <putlist+0x1e0>
     fd4:	0131                	addi	sp,sp,12
     fd6:	8d4ff06f          	j	aa <__riscv_restore_0>

00000fda <iexp>:
     fda:	8c6ff2ef          	jal	t0,a0 <__riscv_save_0>
     fde:	2c55                	jal	1292 <iplus>
     fe0:	87c1c783          	lbu	a5,-1924(gp) # 200001cc <err>
     fe4:	efad                	bnez	a5,105e <iexp+0x84>
     fe6:	84aa                	mv	s1,a0
     fe8:	87418413          	addi	s0,gp,-1932 # 200001c4 <cip>
     fec:	4018                	lw	a4,0(s0)
     fee:	4615                	li	a2,5
     ff0:	231c                	lbu	a5,0(a4)
     ff2:	17ad                	addi	a5,a5,-21
     ff4:	0ff7f793          	andi	a5,a5,255
     ff8:	02f66863          	bltu	a2,a5,1028 <iexp+0x4e>
     ffc:	668d                	lui	a3,0x3
     ffe:	078a                	slli	a5,a5,0x2
    1000:	0dc68613          	addi	a2,a3,220 # 30dc <PS2Keymap_Japanese+0x19c>
    1004:	97b2                	add	a5,a5,a2
    1006:	439c                	lw	a5,0(a5)
    1008:	0705                	addi	a4,a4,1
    100a:	c018                	sw	a4,0(s0)
    100c:	8782                	jr	a5
    100e:	2451                	jal	1292 <iplus>
    1010:	4018                	lw	a4,0(s0)
    1012:	009524b3          	slt	s1,a0,s1
    1016:	4615                	li	a2,5
    1018:	231c                	lbu	a5,0(a4)
    101a:	0014c493          	xori	s1,s1,1
    101e:	17ad                	addi	a5,a5,-21
    1020:	0ff7f793          	andi	a5,a5,255
    1024:	fcf67ce3          	bgeu	a2,a5,ffc <iexp+0x22>
    1028:	8526                	mv	a0,s1
    102a:	880ff06f          	j	aa <__riscv_restore_0>
    102e:	2495                	jal	1292 <iplus>
    1030:	8c89                	sub	s1,s1,a0
    1032:	0014b493          	seqz	s1,s1
    1036:	bf5d                	j	fec <iexp+0x12>
    1038:	2ca9                	jal	1292 <iplus>
    103a:	009524b3          	slt	s1,a0,s1
    103e:	b77d                	j	fec <iexp+0x12>
    1040:	2c89                	jal	1292 <iplus>
    1042:	8c89                	sub	s1,s1,a0
    1044:	009034b3          	snez	s1,s1
    1048:	b755                	j	fec <iexp+0x12>
    104a:	24a1                	jal	1292 <iplus>
    104c:	00a4a4b3          	slt	s1,s1,a0
    1050:	0014c493          	xori	s1,s1,1
    1054:	bf61                	j	fec <iexp+0x12>
    1056:	2c35                	jal	1292 <iplus>
    1058:	00a4a4b3          	slt	s1,s1,a0
    105c:	bf41                	j	fec <iexp+0x12>
    105e:	54fd                	li	s1,-1
    1060:	b7e1                	j	1028 <iexp+0x4e>

00001062 <getparam>:
    1062:	83eff2ef          	jal	t0,a0 <__riscv_save_0>
    1066:	87418413          	addi	s0,gp,-1932 # 200001c4 <cip>
    106a:	401c                	lw	a5,0(s0)
    106c:	474d                	li	a4,19
    106e:	2394                	lbu	a3,0(a5)
    1070:	00e68963          	beq	a3,a4,1082 <getparam+0x20>
    1074:	87c18793          	addi	a5,gp,-1924 # 200001cc <err>
    1078:	4745                	li	a4,17
    107a:	a398                	sb	a4,0(a5)
    107c:	4501                	li	a0,0
    107e:	82cff06f          	j	aa <__riscv_restore_0>
    1082:	0785                	addi	a5,a5,1
    1084:	c01c                	sw	a5,0(s0)
    1086:	3f91                	jal	fda <iexp>
    1088:	87c18793          	addi	a5,gp,-1924 # 200001cc <err>
    108c:	2398                	lbu	a4,0(a5)
    108e:	eb11                	bnez	a4,10a2 <getparam+0x40>
    1090:	4018                	lw	a4,0(s0)
    1092:	46d1                	li	a3,20
    1094:	2310                	lbu	a2,0(a4)
    1096:	fed611e3          	bne	a2,a3,1078 <getparam+0x16>
    109a:	0705                	addi	a4,a4,1
    109c:	c018                	sw	a4,0(s0)
    109e:	80cff06f          	j	aa <__riscv_restore_0>
    10a2:	4501                	li	a0,0
    10a4:	806ff06f          	j	aa <__riscv_restore_0>

000010a8 <ivalue>:
    10a8:	ff9fe2ef          	jal	t0,a0 <__riscv_save_0>
    10ac:	660d                	lui	a2,0x3
    10ae:	1171                	addi	sp,sp,-4
    10b0:	4581                	li	a1,0
    10b2:	4405                	li	s0,1
    10b4:	87418693          	addi	a3,gp,-1932 # 200001c4 <cip>
    10b8:	4559                	li	a0,22
    10ba:	0f460613          	addi	a2,a2,244 # 30f4 <PS2Keymap_Japanese+0x1b4>
    10be:	4298                	lw	a4,0(a3)
    10c0:	231c                	lbu	a5,0(a4)
    10c2:	17c5                	addi	a5,a5,-15
    10c4:	0ff7f793          	andi	a5,a5,255
    10c8:	0ef56f63          	bltu	a0,a5,11c6 <ivalue+0x11e>
    10cc:	078a                	slli	a5,a5,0x2
    10ce:	97b2                	add	a5,a5,a2
    10d0:	439c                	lw	a5,0(a5)
    10d2:	8782                	jr	a5
    10d4:	00270793          	addi	a5,a4,2
    10d8:	c29c                	sw	a5,0(a3)
    10da:	331c                	lbu	a5,1(a4)
    10dc:	00179713          	slli	a4,a5,0x1
    10e0:	b7c18793          	addi	a5,gp,-1156 # 200004cc <var>
    10e4:	97ba                	add	a5,a5,a4
    10e6:	00079583          	lh	a1,0(a5)
    10ea:	8522                	mv	a0,s0
    10ec:	fc9fe0ef          	jal	ra,b4 <__mulsi3>
    10f0:	0542                	slli	a0,a0,0x10
    10f2:	8541                	srai	a0,a0,0x10
    10f4:	0111                	addi	sp,sp,4
    10f6:	fb5fe06f          	j	aa <__riscv_restore_0>
    10fa:	40800433          	neg	s0,s0
    10fe:	0705                	addi	a4,a4,1
    1100:	0442                	slli	s0,s0,0x10
    1102:	c298                	sw	a4,0(a3)
    1104:	8441                	srai	s0,s0,0x10
    1106:	bf65                	j	10be <ivalue+0x16>
    1108:	0705                	addi	a4,a4,1
    110a:	c298                	sw	a4,0(a3)
    110c:	bf4d                	j	10be <ivalue+0x16>
    110e:	3f91                	jal	1062 <getparam>
    1110:	85aa                	mv	a1,a0
    1112:	8522                	mv	a0,s0
    1114:	fa1fe0ef          	jal	ra,b4 <__mulsi3>
    1118:	0542                	slli	a0,a0,0x10
    111a:	8541                	srai	a0,a0,0x10
    111c:	0111                	addi	sp,sp,4
    111e:	f8dfe06f          	j	aa <__riscv_restore_0>
    1122:	0705                	addi	a4,a4,1
    1124:	c298                	sw	a4,0(a3)
    1126:	3f35                	jal	1062 <getparam>
    1128:	87c18793          	addi	a5,gp,-1924 # 200001cc <err>
    112c:	2398                	lbu	a4,0(a5)
    112e:	85aa                	mv	a1,a0
    1130:	ff4d                	bnez	a4,10ea <ivalue+0x42>
    1132:	477d                	li	a4,31
    1134:	0aa75463          	bge	a4,a0,11dc <ivalue+0x134>
    1138:	470d                	li	a4,3
    113a:	a398                	sb	a4,0(a5)
    113c:	b77d                	j	10ea <ivalue+0x42>
    113e:	0705                	addi	a4,a4,1
    1140:	c298                	sw	a4,0(a3)
    1142:	3705                	jal	1062 <getparam>
    1144:	87c1c783          	lbu	a5,-1924(gp) # 200001cc <err>
    1148:	85aa                	mv	a1,a0
    114a:	f3c5                	bnez	a5,10ea <ivalue+0x42>
    114c:	c02a                	sw	a0,0(sp)
    114e:	3cf010ef          	jal	ra,2d1c <random>
    1152:	4582                	lw	a1,0(sp)
    1154:	fd1fe0ef          	jal	ra,124 <__modsi3>
    1158:	01051593          	slli	a1,a0,0x10
    115c:	85c1                	srai	a1,a1,0x10
    115e:	b771                	j	10ea <ivalue+0x42>
    1160:	0705                	addi	a4,a4,1
    1162:	c298                	sw	a4,0(a3)
    1164:	3dfd                	jal	1062 <getparam>
    1166:	87c1c783          	lbu	a5,-1924(gp) # 200001cc <err>
    116a:	85aa                	mv	a1,a0
    116c:	ffbd                	bnez	a5,10ea <ivalue+0x42>
    116e:	f6055ee3          	bgez	a0,10ea <ivalue+0x42>
    1172:	40a005b3          	neg	a1,a0
    1176:	05c2                	slli	a1,a1,0x10
    1178:	85c1                	srai	a1,a1,0x10
    117a:	bf85                	j	10ea <ivalue+0x42>
    117c:	00170793          	addi	a5,a4,1
    1180:	c29c                	sw	a5,0(a3)
    1182:	3310                	lbu	a2,1(a4)
    1184:	47cd                	li	a5,19
    1186:	06f60363          	beq	a2,a5,11ec <ivalue+0x144>
    118a:	4745                	li	a4,17
    118c:	86e18e23          	sb	a4,-1924(gp) # 200001cc <err>
    1190:	8522                	mv	a0,s0
    1192:	f23fe0ef          	jal	ra,b4 <__mulsi3>
    1196:	0542                	slli	a0,a0,0x10
    1198:	8541                	srai	a0,a0,0x10
    119a:	0111                	addi	sp,sp,4
    119c:	f0ffe06f          	j	aa <__riscv_restore_0>
    11a0:	00170793          	addi	a5,a4,1
    11a4:	c29c                	sw	a5,0(a3)
    11a6:	232c                	lbu	a1,2(a4)
    11a8:	331c                	lbu	a5,1(a4)
    11aa:	070d                	addi	a4,a4,3
    11ac:	05a2                	slli	a1,a1,0x8
    11ae:	8ddd                	or	a1,a1,a5
    11b0:	05c2                	slli	a1,a1,0x10
    11b2:	85c1                	srai	a1,a1,0x10
    11b4:	c298                	sw	a4,0(a3)
    11b6:	8522                	mv	a0,s0
    11b8:	efdfe0ef          	jal	ra,b4 <__mulsi3>
    11bc:	0542                	slli	a0,a0,0x10
    11be:	8541                	srai	a0,a0,0x10
    11c0:	0111                	addi	sp,sp,4
    11c2:	ee9fe06f          	j	aa <__riscv_restore_0>
    11c6:	4751                	li	a4,20
    11c8:	86e18e23          	sb	a4,-1924(gp) # 200001cc <err>
    11cc:	8522                	mv	a0,s0
    11ce:	ee7fe0ef          	jal	ra,b4 <__mulsi3>
    11d2:	0542                	slli	a0,a0,0x10
    11d4:	8541                	srai	a0,a0,0x10
    11d6:	0111                	addi	sp,sp,4
    11d8:	ed3fe06f          	j	aa <__riscv_restore_0>
    11dc:	00151593          	slli	a1,a0,0x1
    11e0:	83418793          	addi	a5,gp,-1996 # 20000184 <arr>
    11e4:	95be                	add	a1,a1,a5
    11e6:	00059583          	lh	a1,0(a1)
    11ea:	b701                	j	10ea <ivalue+0x42>
    11ec:	2330                	lbu	a2,2(a4)
    11ee:	47d1                	li	a5,20
    11f0:	f8f61de3          	bne	a2,a5,118a <ivalue+0xe2>
    11f4:	93c18593          	addi	a1,gp,-1732 # 2000028c <listbuf>
    11f8:	2190                	lbu	a2,0(a1)
    11fa:	070d                	addi	a4,a4,3
    11fc:	c298                	sw	a4,0(a3)
    11fe:	ce01                	beqz	a2,1216 <ivalue+0x16e>
    1200:	93c18793          	addi	a5,gp,-1732 # 2000028c <listbuf>
    1204:	97b2                	add	a5,a5,a2
    1206:	2390                	lbu	a2,0(a5)
    1208:	fe75                	bnez	a2,1204 <ivalue+0x15c>
    120a:	8d9d                	sub	a1,a1,a5
    120c:	1ff58593          	addi	a1,a1,511
    1210:	05c2                	slli	a1,a1,0x10
    1212:	85c1                	srai	a1,a1,0x10
    1214:	bdd9                	j	10ea <ivalue+0x42>
    1216:	1ff00593          	li	a1,511
    121a:	bdc1                	j	10ea <ivalue+0x42>

0000121c <imul>:
    121c:	e85fe2ef          	jal	t0,a0 <__riscv_save_0>
    1220:	1161                	addi	sp,sp,-8
    1222:	3559                	jal	10a8 <ivalue>
    1224:	87c18793          	addi	a5,gp,-1924 # 200001cc <err>
    1228:	c23e                	sw	a5,4(sp)
    122a:	239c                	lbu	a5,0(a5)
    122c:	e3ad                	bnez	a5,128e <imul+0x72>
    122e:	862a                	mv	a2,a0
    1230:	87418413          	addi	s0,gp,-1932 # 200001c4 <cip>
    1234:	44c5                	li	s1,17
    1236:	401c                	lw	a5,0(s0)
    1238:	45c9                	li	a1,18
    123a:	2398                	lbu	a4,0(a5)
    123c:	00970963          	beq	a4,s1,124e <imul+0x32>
    1240:	0785                	addi	a5,a5,1
    1242:	02b70363          	beq	a4,a1,1268 <imul+0x4c>
    1246:	8532                	mv	a0,a2
    1248:	0121                	addi	sp,sp,8
    124a:	e61fe06f          	j	aa <__riscv_restore_0>
    124e:	0785                	addi	a5,a5,1
    1250:	c032                	sw	a2,0(sp)
    1252:	c01c                	sw	a5,0(s0)
    1254:	3d91                	jal	10a8 <ivalue>
    1256:	4602                	lw	a2,0(sp)
    1258:	85aa                	mv	a1,a0
    125a:	8532                	mv	a0,a2
    125c:	e59fe0ef          	jal	ra,b4 <__mulsi3>
    1260:	01051613          	slli	a2,a0,0x10
    1264:	8641                	srai	a2,a2,0x10
    1266:	bfc1                	j	1236 <imul+0x1a>
    1268:	c032                	sw	a2,0(sp)
    126a:	c01c                	sw	a5,0(s0)
    126c:	3d35                	jal	10a8 <ivalue>
    126e:	4602                	lw	a2,0(sp)
    1270:	87aa                	mv	a5,a0
    1272:	85aa                	mv	a1,a0
    1274:	8532                	mv	a0,a2
    1276:	c799                	beqz	a5,1284 <imul+0x68>
    1278:	e55fe0ef          	jal	ra,cc <__divsi3>
    127c:	01051613          	slli	a2,a0,0x10
    1280:	8641                	srai	a2,a2,0x10
    1282:	bf55                	j	1236 <imul+0x1a>
    1284:	4712                	lw	a4,4(sp)
    1286:	4785                	li	a5,1
    1288:	567d                	li	a2,-1
    128a:	a31c                	sb	a5,0(a4)
    128c:	bf6d                	j	1246 <imul+0x2a>
    128e:	567d                	li	a2,-1
    1290:	bf5d                	j	1246 <imul+0x2a>

00001292 <iplus>:
    1292:	e0ffe2ef          	jal	t0,a0 <__riscv_save_0>
    1296:	3759                	jal	121c <imul>
    1298:	87c1c783          	lbu	a5,-1924(gp) # 200001cc <err>
    129c:	e3a1                	bnez	a5,12dc <iplus+0x4a>
    129e:	842a                	mv	s0,a0
    12a0:	87418493          	addi	s1,gp,-1932 # 200001c4 <cip>
    12a4:	463d                	li	a2,15
    12a6:	409c                	lw	a5,0(s1)
    12a8:	46c1                	li	a3,16
    12aa:	2398                	lbu	a4,0(a5)
    12ac:	0785                	addi	a5,a5,1
    12ae:	02c70063          	beq	a4,a2,12ce <iplus+0x3c>
    12b2:	02d71663          	bne	a4,a3,12de <iplus+0x4c>
    12b6:	c09c                	sw	a5,0(s1)
    12b8:	3795                	jal	121c <imul>
    12ba:	409c                	lw	a5,0(s1)
    12bc:	942a                	add	s0,s0,a0
    12be:	0442                	slli	s0,s0,0x10
    12c0:	2398                	lbu	a4,0(a5)
    12c2:	463d                	li	a2,15
    12c4:	8441                	srai	s0,s0,0x10
    12c6:	46c1                	li	a3,16
    12c8:	0785                	addi	a5,a5,1
    12ca:	fec714e3          	bne	a4,a2,12b2 <iplus+0x20>
    12ce:	c09c                	sw	a5,0(s1)
    12d0:	37b1                	jal	121c <imul>
    12d2:	8c09                	sub	s0,s0,a0
    12d4:	0442                	slli	s0,s0,0x10
    12d6:	8441                	srai	s0,s0,0x10
    12d8:	463d                	li	a2,15
    12da:	b7f1                	j	12a6 <iplus+0x14>
    12dc:	547d                	li	s0,-1
    12de:	8522                	mv	a0,s0
    12e0:	dcbfe06f          	j	aa <__riscv_restore_0>

000012e4 <iprint>:
    12e4:	dbdfe2ef          	jal	t0,a0 <__riscv_save_0>
    12e8:	87418413          	addi	s0,gp,-1932 # 200001c4 <cip>
    12ec:	4014                	lw	a3,0(s0)
    12ee:	1171                	addi	sp,sp,-4
    12f0:	c002                	sw	zero,0(sp)
    12f2:	229c                	lbu	a5,0(a3)
    12f4:	4739                	li	a4,14
    12f6:	06e78063          	beq	a5,a4,1356 <iprint+0x72>
    12fa:	02700713          	li	a4,39
    12fe:	04e78c63          	beq	a5,a4,1356 <iprint+0x72>
    1302:	4759                	li	a4,22
    1304:	06e78a63          	beq	a5,a4,1378 <iprint+0x94>
    1308:	02600713          	li	a4,38
    130c:	06e79f63          	bne	a5,a4,138a <iprint+0xa6>
    1310:	00268713          	addi	a4,a3,2
    1314:	c018                	sw	a4,0(s0)
    1316:	3294                	lbu	a3,1(a3)
    1318:	fff68793          	addi	a5,a3,-1
    131c:	0ff7f493          	andi	s1,a5,255
    1320:	c285                	beqz	a3,1340 <iprint+0x5c>
    1322:	00170693          	addi	a3,a4,1
    1326:	c014                	sw	a3,0(s0)
    1328:	2308                	lbu	a0,0(a4)
    132a:	4d9000ef          	jal	ra,2002 <video_putch>
    132e:	fff48793          	addi	a5,s1,-1
    1332:	0ff7f493          	andi	s1,a5,255
    1336:	0ff00793          	li	a5,255
    133a:	4018                	lw	a4,0(s0)
    133c:	fef493e3          	bne	s1,a5,1322 <iprint+0x3e>
    1340:	231c                	lbu	a5,0(a4)
    1342:	46b5                	li	a3,13
    1344:	00d78e63          	beq	a5,a3,1360 <iprint+0x7c>
    1348:	4739                	li	a4,14
    134a:	00e78663          	beq	a5,a4,1356 <iprint+0x72>
    134e:	02700713          	li	a4,39
    1352:	04e79563          	bne	a5,a4,139c <iprint+0xb8>
    1356:	53d000ef          	jal	ra,2092 <video_newline>
    135a:	0111                	addi	sp,sp,4
    135c:	d4ffe06f          	j	aa <__riscv_restore_0>
    1360:	00170693          	addi	a3,a4,1
    1364:	c014                	sw	a3,0(s0)
    1366:	331c                	lbu	a5,1(a4)
    1368:	4739                	li	a4,14
    136a:	fee788e3          	beq	a5,a4,135a <iprint+0x76>
    136e:	02700713          	li	a4,39
    1372:	f8e791e3          	bne	a5,a4,12f4 <iprint+0x10>
    1376:	b7d5                	j	135a <iprint+0x76>
    1378:	0685                	addi	a3,a3,1
    137a:	c014                	sw	a3,0(s0)
    137c:	39b9                	jal	fda <iexp>
    137e:	87c1c783          	lbu	a5,-1924(gp) # 200001cc <err>
    1382:	c02a                	sw	a0,0(sp)
    1384:	fbf9                	bnez	a5,135a <iprint+0x76>
    1386:	4018                	lw	a4,0(s0)
    1388:	bf65                	j	1340 <iprint+0x5c>
    138a:	3981                	jal	fda <iexp>
    138c:	87c1c783          	lbu	a5,-1924(gp) # 200001cc <err>
    1390:	f7e9                	bnez	a5,135a <iprint+0x76>
    1392:	4582                	lw	a1,0(sp)
    1394:	b3cff0ef          	jal	ra,6d0 <putnum>
    1398:	4018                	lw	a4,0(s0)
    139a:	b75d                	j	1340 <iprint+0x5c>
    139c:	4751                	li	a4,20
    139e:	86e18e23          	sb	a4,-1924(gp) # 200001cc <err>
    13a2:	0111                	addi	sp,sp,4
    13a4:	d07fe06f          	j	aa <__riscv_restore_0>

000013a8 <iinput>:
    13a8:	cf9fe2ef          	jal	t0,a0 <__riscv_save_0>
    13ac:	87418413          	addi	s0,gp,-1932 # 200001c4 <cip>
    13b0:	401c                	lw	a5,0(s0)
    13b2:	87c18713          	addi	a4,gp,-1924 # 200001cc <err>
    13b6:	1141                	addi	sp,sp,-16
    13b8:	c03a                	sw	a4,0(sp)
    13ba:	2398                	lbu	a4,0(a5)
    13bc:	02600693          	li	a3,38
    13c0:	06d70b63          	beq	a4,a3,1436 <iinput+0x8e>
    13c4:	46ed                	li	a3,27
    13c6:	00d70c63          	beq	a4,a3,13de <iinput+0x36>
    13ca:	02500693          	li	a3,37
    13ce:	0cd70763          	beq	a4,a3,149c <iinput+0xf4>
    13d2:	4702                	lw	a4,0(sp)
    13d4:	47d1                	li	a5,20
    13d6:	a31c                	sb	a5,0(a4)
    13d8:	0141                	addi	sp,sp,16
    13da:	cd1fe06f          	j	aa <__riscv_restore_0>
    13de:	4705                	li	a4,1
    13e0:	0785                	addi	a5,a5,1
    13e2:	c01c                	sw	a5,0(s0)
    13e4:	c23a                	sw	a4,4(sp)
    13e6:	39b5                	jal	1062 <getparam>
    13e8:	4782                	lw	a5,0(sp)
    13ea:	84aa                	mv	s1,a0
    13ec:	239c                	lbu	a5,0(a5)
    13ee:	f7ed                	bnez	a5,13d8 <iinput+0x30>
    13f0:	47fd                	li	a5,31
    13f2:	4712                	lw	a4,4(sp)
    13f4:	12a7c663          	blt	a5,a0,1520 <iinput+0x178>
    13f8:	e369                	bnez	a4,14ba <iinput+0x112>
    13fa:	b90ff0ef          	jal	ra,78a <getnum>
    13fe:	4782                	lw	a5,0(sp)
    1400:	239c                	lbu	a5,0(a5)
    1402:	fbf9                	bnez	a5,13d8 <iinput+0x30>
    1404:	83418713          	addi	a4,gp,-1996 # 20000184 <arr>
    1408:	00149793          	slli	a5,s1,0x1
    140c:	97ba                	add	a5,a5,a4
    140e:	a38a                	sh	a0,0(a5)
    1410:	401c                	lw	a5,0(s0)
    1412:	2398                	lbu	a4,0(a5)
    1414:	46b9                	li	a3,14
    1416:	fcd701e3          	beq	a4,a3,13d8 <iinput+0x30>
    141a:	02700693          	li	a3,39
    141e:	fad70de3          	beq	a4,a3,13d8 <iinput+0x30>
    1422:	46b5                	li	a3,13
    1424:	fad717e3          	bne	a4,a3,13d2 <iinput+0x2a>
    1428:	0785                	addi	a5,a5,1
    142a:	c01c                	sw	a5,0(s0)
    142c:	2398                	lbu	a4,0(a5)
    142e:	02600693          	li	a3,38
    1432:	f8d719e3          	bne	a4,a3,13c4 <iinput+0x1c>
    1436:	00278713          	addi	a4,a5,2
    143a:	c018                	sw	a4,0(s0)
    143c:	3394                	lbu	a3,1(a5)
    143e:	fff68793          	addi	a5,a3,-1
    1442:	0ff7f493          	andi	s1,a5,255
    1446:	c285                	beqz	a3,1466 <iinput+0xbe>
    1448:	00170693          	addi	a3,a4,1
    144c:	c014                	sw	a3,0(s0)
    144e:	2308                	lbu	a0,0(a4)
    1450:	3b3000ef          	jal	ra,2002 <video_putch>
    1454:	fff48793          	addi	a5,s1,-1
    1458:	0ff7f493          	andi	s1,a5,255
    145c:	0ff00793          	li	a5,255
    1460:	4018                	lw	a4,0(s0)
    1462:	fef493e3          	bne	s1,a5,1448 <iinput+0xa0>
    1466:	231c                	lbu	a5,0(a4)
    1468:	46ed                	li	a3,27
    146a:	0ad78f63          	beq	a5,a3,1528 <iinput+0x180>
    146e:	02500693          	li	a3,37
    1472:	f6d790e3          	bne	a5,a3,13d2 <iinput+0x2a>
    1476:	0705                	addi	a4,a4,1
    1478:	c018                	sw	a4,0(s0)
    147a:	b10ff0ef          	jal	ra,78a <getnum>
    147e:	4782                	lw	a5,0(sp)
    1480:	239c                	lbu	a5,0(a5)
    1482:	fbb9                	bnez	a5,13d8 <iinput+0x30>
    1484:	4018                	lw	a4,0(s0)
    1486:	00170793          	addi	a5,a4,1
    148a:	c01c                	sw	a5,0(s0)
    148c:	2318                	lbu	a4,0(a4)
    148e:	00171693          	slli	a3,a4,0x1
    1492:	b7c18713          	addi	a4,gp,-1156 # 200004cc <var>
    1496:	9736                	add	a4,a4,a3
    1498:	a30a                	sh	a0,0(a4)
    149a:	bfa5                	j	1412 <iinput+0x6a>
    149c:	00178713          	addi	a4,a5,1
    14a0:	c018                	sw	a4,0(s0)
    14a2:	3388                	lbu	a0,1(a5)
    14a4:	04150513          	addi	a0,a0,65
    14a8:	0ff57513          	andi	a0,a0,255
    14ac:	357000ef          	jal	ra,2002 <video_putch>
    14b0:	03a00513          	li	a0,58
    14b4:	34f000ef          	jal	ra,2002 <video_putch>
    14b8:	b7c9                	j	147a <iinput+0xd2>
    14ba:	000037b7          	lui	a5,0x3
    14be:	02800713          	li	a4,40
    14c2:	04000513          	li	a0,64
    14c6:	26478793          	addi	a5,a5,612 # 3264 <i_nsb+0x10>
    14ca:	a029                	j	14d4 <iinput+0x12c>
    14cc:	47a2                	lw	a5,8(sp)
    14ce:	853a                	mv	a0,a4
    14d0:	00178703          	lb	a4,1(a5)
    14d4:	0785                	addi	a5,a5,1
    14d6:	0ff57513          	andi	a0,a0,255
    14da:	c23a                	sw	a4,4(sp)
    14dc:	c43e                	sw	a5,8(sp)
    14de:	c63e                	sw	a5,12(sp)
    14e0:	323000ef          	jal	ra,2002 <video_putch>
    14e4:	4712                	lw	a4,4(sp)
    14e6:	f37d                	bnez	a4,14cc <iinput+0x124>
    14e8:	8526                	mv	a0,s1
    14ea:	4581                	li	a1,0
    14ec:	9e4ff0ef          	jal	ra,6d0 <putnum>
    14f0:	000037b7          	lui	a5,0x3
    14f4:	03a00713          	li	a4,58
    14f8:	02900513          	li	a0,41
    14fc:	26878793          	addi	a5,a5,616 # 3268 <i_nsb+0x14>
    1500:	a029                	j	150a <iinput+0x162>
    1502:	47a2                	lw	a5,8(sp)
    1504:	853a                	mv	a0,a4
    1506:	00178703          	lb	a4,1(a5)
    150a:	0785                	addi	a5,a5,1
    150c:	0ff57513          	andi	a0,a0,255
    1510:	c23a                	sw	a4,4(sp)
    1512:	c43e                	sw	a5,8(sp)
    1514:	c63e                	sw	a5,12(sp)
    1516:	2ed000ef          	jal	ra,2002 <video_putch>
    151a:	4712                	lw	a4,4(sp)
    151c:	f37d                	bnez	a4,1502 <iinput+0x15a>
    151e:	bdf1                	j	13fa <iinput+0x52>
    1520:	4702                	lw	a4,0(sp)
    1522:	478d                	li	a5,3
    1524:	a31c                	sb	a5,0(a4)
    1526:	bd4d                	j	13d8 <iinput+0x30>
    1528:	87ba                	mv	a5,a4
    152a:	4701                	li	a4,0
    152c:	bd55                	j	13e0 <iinput+0x38>

0000152e <ivar>:
    152e:	87418793          	addi	a5,gp,-1932 # 200001c4 <cip>
    1532:	4398                	lw	a4,0(a5)
    1534:	46e1                	li	a3,24
    1536:	00170613          	addi	a2,a4,1
    153a:	c390                	sw	a2,0(a5)
    153c:	3310                	lbu	a2,1(a4)
    153e:	00d60663          	beq	a2,a3,154a <ivar+0x1c>
    1542:	4749                	li	a4,18
    1544:	86e18e23          	sb	a4,-1924(gp) # 200001cc <err>
    1548:	8082                	ret
    154a:	b57fe2ef          	jal	t0,a0 <__riscv_save_0>
    154e:	00270693          	addi	a3,a4,2
    1552:	2300                	lbu	s0,0(a4)
    1554:	c394                	sw	a3,0(a5)
    1556:	a85ff0ef          	jal	ra,fda <iexp>
    155a:	87c1c783          	lbu	a5,-1924(gp) # 200001cc <err>
    155e:	e791                	bnez	a5,156a <ivar+0x3c>
    1560:	0406                	slli	s0,s0,0x1
    1562:	b7c18793          	addi	a5,gp,-1156 # 200004cc <var>
    1566:	97a2                	add	a5,a5,s0
    1568:	a38a                	sh	a0,0(a5)
    156a:	b41fe06f          	j	aa <__riscv_restore_0>

0000156e <iarray>:
    156e:	b33fe2ef          	jal	t0,a0 <__riscv_save_0>
    1572:	af1ff0ef          	jal	ra,1062 <getparam>
    1576:	87c18413          	addi	s0,gp,-1924 # 200001cc <err>
    157a:	201c                	lbu	a5,0(s0)
    157c:	ef91                	bnez	a5,1598 <iarray+0x2a>
    157e:	47fd                	li	a5,31
    1580:	84aa                	mv	s1,a0
    1582:	00a7cd63          	blt	a5,a0,159c <iarray+0x2e>
    1586:	87418793          	addi	a5,gp,-1932 # 200001c4 <cip>
    158a:	4398                	lw	a4,0(a5)
    158c:	46e1                	li	a3,24
    158e:	2310                	lbu	a2,0(a4)
    1590:	00d60a63          	beq	a2,a3,15a4 <iarray+0x36>
    1594:	47c9                	li	a5,18
    1596:	a01c                	sb	a5,0(s0)
    1598:	b13fe06f          	j	aa <__riscv_restore_0>
    159c:	478d                	li	a5,3
    159e:	a01c                	sb	a5,0(s0)
    15a0:	b0bfe06f          	j	aa <__riscv_restore_0>
    15a4:	0705                	addi	a4,a4,1
    15a6:	c398                	sw	a4,0(a5)
    15a8:	a33ff0ef          	jal	ra,fda <iexp>
    15ac:	201c                	lbu	a5,0(s0)
    15ae:	f7ed                	bnez	a5,1598 <iarray+0x2a>
    15b0:	0486                	slli	s1,s1,0x1
    15b2:	83418793          	addi	a5,gp,-1996 # 20000184 <arr>
    15b6:	94be                	add	s1,s1,a5
    15b8:	a08a                	sh	a0,0(s1)
    15ba:	bff9                	j	1598 <iarray+0x2a>

000015bc <ilet>:
    15bc:	ae5fe2ef          	jal	t0,a0 <__riscv_save_0>
    15c0:	87418793          	addi	a5,gp,-1932 # 200001c4 <cip>
    15c4:	4398                	lw	a4,0(a5)
    15c6:	466d                	li	a2,27
    15c8:	2314                	lbu	a3,0(a4)
    15ca:	00c68b63          	beq	a3,a2,15e0 <ilet+0x24>
    15ce:	02500613          	li	a2,37
    15d2:	00c69c63          	bne	a3,a2,15ea <ilet+0x2e>
    15d6:	0705                	addi	a4,a4,1
    15d8:	c398                	sw	a4,0(a5)
    15da:	3f91                	jal	152e <ivar>
    15dc:	acffe06f          	j	aa <__riscv_restore_0>
    15e0:	0705                	addi	a4,a4,1
    15e2:	c398                	sw	a4,0(a5)
    15e4:	3769                	jal	156e <iarray>
    15e6:	ac5fe06f          	j	aa <__riscv_restore_0>
    15ea:	4739                	li	a4,14
    15ec:	86e18e23          	sb	a4,-1924(gp) # 200001cc <err>
    15f0:	abbfe06f          	j	aa <__riscv_restore_0>

000015f4 <iexe>:
    15f4:	aadfe2ef          	jal	t0,a0 <__riscv_save_0>
    15f8:	87418493          	addi	s1,gp,-1932 # 200001c4 <cip>
    15fc:	4098                	lw	a4,0(s1)
    15fe:	1151                	addi	sp,sp,-12
    1600:	640d                	lui	s0,0x3
    1602:	2318                	lbu	a4,0(a4)
    1604:	02700793          	li	a5,39
    1608:	02f70963          	beq	a4,a5,163a <iexe+0x46>
    160c:	ee5fe0ef          	jal	ra,4f0 <kbd_available>
    1610:	ed09                	bnez	a0,162a <iexe+0x36>
    1612:	4094                	lw	a3,0(s1)
    1614:	02500713          	li	a4,37
    1618:	229c                	lbu	a5,0(a3)
    161a:	20f76c63          	bltu	a4,a5,1832 <iexe+0x23e>
    161e:	078a                	slli	a5,a5,0x2
    1620:	15040713          	addi	a4,s0,336 # 3150 <PS2Keymap_Japanese+0x210>
    1624:	97ba                	add	a5,a5,a4
    1626:	439c                	lw	a5,0(a5)
    1628:	8782                	jr	a5
    162a:	ee9fe0ef          	jal	ra,512 <kbd_read>
    162e:	47ed                	li	a5,27
    1630:	fef511e3          	bne	a0,a5,1612 <iexe+0x1e>
    1634:	4759                	li	a4,22
    1636:	86e18e23          	sb	a4,-1924(gp) # 200001cc <err>
    163a:	8781a503          	lw	a0,-1928(gp) # 200001c8 <clp>
    163e:	211c                	lbu	a5,0(a0)
    1640:	0131                	addi	sp,sp,12
    1642:	953e                	add	a0,a0,a5
    1644:	a67fe06f          	j	aa <__riscv_restore_0>
    1648:	0685                	addi	a3,a3,1
    164a:	c094                	sw	a3,0(s1)
    164c:	35cd                	jal	152e <ivar>
    164e:	87c1c783          	lbu	a5,-1924(gp) # 200001cc <err>
    1652:	ebd9                	bnez	a5,16e8 <iexe+0xf4>
    1654:	409c                	lw	a5,0(s1)
    1656:	2398                	lbu	a4,0(a5)
    1658:	b775                	j	1604 <iexe+0x10>
    165a:	474d                	li	a4,19
    165c:	86e18e23          	sb	a4,-1924(gp) # 200001cc <err>
    1660:	4501                	li	a0,0
    1662:	0131                	addi	sp,sp,12
    1664:	a47fe06f          	j	aa <__riscv_restore_0>
    1668:	0685                	addi	a3,a3,1
    166a:	c094                	sw	a3,0(s1)
    166c:	3709                	jal	156e <iarray>
    166e:	87c1c783          	lbu	a5,-1924(gp) # 200001cc <err>
    1672:	b7c5                	j	1652 <iexe+0x5e>
    1674:	0685                	addi	a3,a3,1
    1676:	c094                	sw	a3,0(s1)
    1678:	87c1c783          	lbu	a5,-1924(gp) # 200001cc <err>
    167c:	bfd9                	j	1652 <iexe+0x5e>
    167e:	0685                	addi	a3,a3,1
    1680:	c094                	sw	a3,0(s1)
    1682:	3f2d                	jal	15bc <ilet>
    1684:	87c1c783          	lbu	a5,-1924(gp) # 200001cc <err>
    1688:	b7e9                	j	1652 <iexe+0x5e>
    168a:	0685                	addi	a3,a3,1
    168c:	c094                	sw	a3,0(s1)
    168e:	3999                	jal	12e4 <iprint>
    1690:	87c1c783          	lbu	a5,-1924(gp) # 200001cc <err>
    1694:	bf7d                	j	1652 <iexe+0x5e>
    1696:	0685                	addi	a3,a3,1
    1698:	c094                	sw	a3,0(s1)
    169a:	3339                	jal	13a8 <iinput>
    169c:	87c1c783          	lbu	a5,-1924(gp) # 200001cc <err>
    16a0:	bf4d                	j	1652 <iexe+0x5e>
    16a2:	87818713          	addi	a4,gp,-1928 # 200001c8 <clp>
    16a6:	4308                	lw	a0,0(a4)
    16a8:	211c                	lbu	a5,0(a0)
    16aa:	dfc5                	beqz	a5,1662 <iexe+0x6e>
    16ac:	953e                	add	a0,a0,a5
    16ae:	c308                	sw	a0,0(a4)
    16b0:	211c                	lbu	a5,0(a0)
    16b2:	ffed                	bnez	a5,16ac <iexe+0xb8>
    16b4:	0131                	addi	sp,sp,12
    16b6:	9f5fe06f          	j	aa <__riscv_restore_0>
    16ba:	87c1c783          	lbu	a5,-1924(gp) # 200001cc <err>
    16be:	0685                	addi	a3,a3,1
    16c0:	02700613          	li	a2,39
    16c4:	c094                	sw	a3,0(s1)
    16c6:	0685                	addi	a3,a3,1
    16c8:	fff6c703          	lbu	a4,-1(a3)
    16cc:	fec71ce3          	bne	a4,a2,16c4 <iexe+0xd0>
    16d0:	b749                	j	1652 <iexe+0x5e>
    16d2:	0685                	addi	a3,a3,1
    16d4:	c094                	sw	a3,0(s1)
    16d6:	905ff0ef          	jal	ra,fda <iexp>
    16da:	87c18713          	addi	a4,gp,-1924 # 200001cc <err>
    16de:	231c                	lbu	a5,0(a4)
    16e0:	16078363          	beqz	a5,1846 <iexe+0x252>
    16e4:	47bd                	li	a5,15
    16e6:	a31c                	sb	a5,0(a4)
    16e8:	4501                	li	a0,0
    16ea:	0131                	addi	sp,sp,12
    16ec:	9bffe06f          	j	aa <__riscv_restore_0>
    16f0:	b7818793          	addi	a5,gp,-1160 # 200004c8 <lstki>
    16f4:	2390                	lbu	a2,0(a5)
    16f6:	00168713          	addi	a4,a3,1
    16fa:	c098                	sw	a4,0(s1)
    16fc:	4711                	li	a4,4
    16fe:	12c77f63          	bgeu	a4,a2,183c <iexe+0x248>
    1702:	00268713          	addi	a4,a3,2
    1706:	c098                	sw	a4,0(s1)
    1708:	fff60713          	addi	a4,a2,-1
    170c:	3288                	lbu	a0,1(a3)
    170e:	b3c18593          	addi	a1,gp,-1220 # 2000048c <lstk>
    1712:	070a                	slli	a4,a4,0x2
    1714:	972e                	add	a4,a4,a1
    1716:	02500313          	li	t1,37
    171a:	4318                	lw	a4,0(a4)
    171c:	16650463          	beq	a0,t1,1884 <iexe+0x290>
    1720:	4729                	li	a4,10
    1722:	86e18e23          	sb	a4,-1924(gp) # 200001cc <err>
    1726:	4501                	li	a0,0
    1728:	b7c9                	j	16ea <iexe+0xf6>
    172a:	00268793          	addi	a5,a3,2
    172e:	c09c                	sw	a5,0(s1)
    1730:	3298                	lbu	a4,1(a3)
    1732:	02500793          	li	a5,37
    1736:	12f70663          	beq	a4,a5,1862 <iexe+0x26e>
    173a:	4731                	li	a4,12
    173c:	86e18e23          	sb	a4,-1924(gp) # 200001cc <err>
    1740:	4501                	li	a0,0
    1742:	b765                	j	16ea <iexe+0xf6>
    1744:	89818693          	addi	a3,gp,-1896 # 200001e8 <gstki>
    1748:	2298                	lbu	a4,0(a3)
    174a:	4785                	li	a5,1
    174c:	10e7f663          	bgeu	a5,a4,1858 <iexe+0x264>
    1750:	fff70793          	addi	a5,a4,-1
    1754:	0ff7f793          	andi	a5,a5,255
    1758:	1779                	addi	a4,a4,-2
    175a:	0ff77713          	andi	a4,a4,255
    175e:	88018613          	addi	a2,gp,-1920 # 200001d0 <gstk>
    1762:	078a                	slli	a5,a5,0x2
    1764:	97b2                	add	a5,a5,a2
    1766:	00271593          	slli	a1,a4,0x2
    176a:	439c                	lw	a5,0(a5)
    176c:	962e                	add	a2,a2,a1
    176e:	4210                	lw	a2,0(a2)
    1770:	c09c                	sw	a5,0(s1)
    1772:	86c1ac23          	sw	a2,-1928(gp) # 200001c8 <clp>
    1776:	a298                	sb	a4,0(a3)
    1778:	87c1c783          	lbu	a5,-1924(gp) # 200001cc <err>
    177c:	bdd9                	j	1652 <iexe+0x5e>
    177e:	0685                	addi	a3,a3,1
    1780:	c094                	sw	a3,0(s1)
    1782:	859ff0ef          	jal	ra,fda <iexp>
    1786:	87c18713          	addi	a4,gp,-1924 # 200001cc <err>
    178a:	231c                	lbu	a5,0(a4)
    178c:	ffb1                	bnez	a5,16e8 <iexe+0xf4>
    178e:	93c18593          	addi	a1,gp,-1732 # 2000028c <listbuf>
    1792:	2194                	lbu	a3,0(a1)
    1794:	1e068963          	beqz	a3,1986 <iexe+0x392>
    1798:	21bc                	lbu	a5,2(a1)
    179a:	318c                	lbu	a1,1(a1)
    179c:	93c18613          	addi	a2,gp,-1732 # 2000028c <listbuf>
    17a0:	07a2                	slli	a5,a5,0x8
    17a2:	8fcd                	or	a5,a5,a1
    17a4:	07c2                	slli	a5,a5,0x10
    17a6:	87c1                	srai	a5,a5,0x10
    17a8:	00a7cb63          	blt	a5,a0,17be <iexe+0x1ca>
    17ac:	a831                	j	17c8 <iexe+0x1d4>
    17ae:	223c                	lbu	a5,2(a2)
    17b0:	320c                	lbu	a1,1(a2)
    17b2:	07a2                	slli	a5,a5,0x8
    17b4:	8fcd                	or	a5,a5,a1
    17b6:	07c2                	slli	a5,a5,0x10
    17b8:	87c1                	srai	a5,a5,0x10
    17ba:	00a7d763          	bge	a5,a0,17c8 <iexe+0x1d4>
    17be:	9636                	add	a2,a2,a3
    17c0:	2214                	lbu	a3,0(a2)
    17c2:	f6f5                	bnez	a3,17ae <iexe+0x1ba>
    17c4:	67a1                	lui	a5,0x8
    17c6:	17fd                	addi	a5,a5,-1
    17c8:	10f50e63          	beq	a0,a5,18e4 <iexe+0x2f0>
    17cc:	47c1                	li	a5,16
    17ce:	a31c                	sb	a5,0(a4)
    17d0:	4501                	li	a0,0
    17d2:	bf21                	j	16ea <iexe+0xf6>
    17d4:	0685                	addi	a3,a3,1
    17d6:	c094                	sw	a3,0(s1)
    17d8:	803ff0ef          	jal	ra,fda <iexp>
    17dc:	87c18713          	addi	a4,gp,-1924 # 200001cc <err>
    17e0:	231c                	lbu	a5,0(a4)
    17e2:	f00793e3          	bnez	a5,16e8 <iexe+0xf4>
    17e6:	93c18593          	addi	a1,gp,-1732 # 2000028c <listbuf>
    17ea:	2194                	lbu	a3,0(a1)
    17ec:	1a068063          	beqz	a3,198c <iexe+0x398>
    17f0:	21bc                	lbu	a5,2(a1)
    17f2:	318c                	lbu	a1,1(a1)
    17f4:	93c18613          	addi	a2,gp,-1732 # 2000028c <listbuf>
    17f8:	07a2                	slli	a5,a5,0x8
    17fa:	8fcd                	or	a5,a5,a1
    17fc:	07c2                	slli	a5,a5,0x10
    17fe:	87c1                	srai	a5,a5,0x10
    1800:	00a7cb63          	blt	a5,a0,1816 <iexe+0x222>
    1804:	a831                	j	1820 <iexe+0x22c>
    1806:	223c                	lbu	a5,2(a2)
    1808:	320c                	lbu	a1,1(a2)
    180a:	07a2                	slli	a5,a5,0x8
    180c:	8fcd                	or	a5,a5,a1
    180e:	07c2                	slli	a5,a5,0x10
    1810:	87c1                	srai	a5,a5,0x10
    1812:	00a7d763          	bge	a5,a0,1820 <iexe+0x22c>
    1816:	9636                	add	a2,a2,a3
    1818:	2214                	lbu	a3,0(a2)
    181a:	f6f5                	bnez	a3,1806 <iexe+0x212>
    181c:	67a1                	lui	a5,0x8
    181e:	17fd                	addi	a5,a5,-1
    1820:	faf516e3          	bne	a0,a5,17cc <iexe+0x1d8>
    1824:	00360793          	addi	a5,a2,3
    1828:	86c1ac23          	sw	a2,-1928(gp) # 200001c8 <clp>
    182c:	c09c                	sw	a5,0(s1)
    182e:	3238                	lbu	a4,3(a2)
    1830:	bbd1                	j	1604 <iexe+0x10>
    1832:	4751                	li	a4,20
    1834:	86e18e23          	sb	a4,-1924(gp) # 200001cc <err>
    1838:	4501                	li	a0,0
    183a:	bd45                	j	16ea <iexe+0xf6>
    183c:	4725                	li	a4,9
    183e:	86e18e23          	sb	a4,-1924(gp) # 200001cc <err>
    1842:	4501                	li	a0,0
    1844:	b55d                	j	16ea <iexe+0xf6>
    1846:	4094                	lw	a3,0(s1)
    1848:	2298                	lbu	a4,0(a3)
    184a:	da051de3          	bnez	a0,1604 <iexe+0x10>
    184e:	02700613          	li	a2,39
    1852:	e6c716e3          	bne	a4,a2,16be <iexe+0xca>
    1856:	b3d5                	j	163a <iexe+0x46>
    1858:	471d                	li	a4,7
    185a:	86e18e23          	sb	a4,-1924(gp) # 200001cc <err>
    185e:	4501                	li	a0,0
    1860:	b569                	j	16ea <iexe+0xf6>
    1862:	22bc                	lbu	a5,2(a3)
    1864:	c03e                	sw	a5,0(sp)
    1866:	31e1                	jal	152e <ivar>
    1868:	87c18713          	addi	a4,gp,-1924 # 200001cc <err>
    186c:	231c                	lbu	a5,0(a4)
    186e:	e6079de3          	bnez	a5,16e8 <iexe+0xf4>
    1872:	409c                	lw	a5,0(s1)
    1874:	4691                	li	a3,4
    1876:	2390                	lbu	a2,0(a5)
    1878:	0ed60163          	beq	a2,a3,195a <iexe+0x366>
    187c:	47b5                	li	a5,13
    187e:	a31c                	sb	a5,0(a4)
    1880:	4501                	li	a0,0
    1882:	b5a5                	j	16ea <iexe+0xf6>
    1884:	00368513          	addi	a0,a3,3
    1888:	c088                	sw	a0,0(s1)
    188a:	22b4                	lbu	a3,2(a3)
    188c:	0742                	slli	a4,a4,0x10
    188e:	8741                	srai	a4,a4,0x10
    1890:	00e68763          	beq	a3,a4,189e <iexe+0x2aa>
    1894:	472d                	li	a4,11
    1896:	86e18e23          	sb	a4,-1924(gp) # 200001cc <err>
    189a:	4501                	li	a0,0
    189c:	b5b9                	j	16ea <iexe+0xf6>
    189e:	ffe60713          	addi	a4,a2,-2
    18a2:	b7c18513          	addi	a0,gp,-1156 # 200004cc <var>
    18a6:	070a                	slli	a4,a4,0x2
    18a8:	0686                	slli	a3,a3,0x1
    18aa:	96aa                	add	a3,a3,a0
    18ac:	972e                	add	a4,a4,a1
    18ae:	00072303          	lw	t1,0(a4)
    18b2:	229a                	lhu	a4,0(a3)
    18b4:	ffd60513          	addi	a0,a2,-3
    18b8:	050a                	slli	a0,a0,0x2
    18ba:	971a                	add	a4,a4,t1
    18bc:	0742                	slli	a4,a4,0x10
    18be:	8741                	srai	a4,a4,0x10
    18c0:	0342                	slli	t1,t1,0x10
    18c2:	952e                	add	a0,a0,a1
    18c4:	a29a                	sh	a4,0(a3)
    18c6:	41035313          	srai	t1,t1,0x10
    18ca:	00051683          	lh	a3,0(a0)
    18ce:	06034463          	bltz	t1,1936 <iexe+0x342>
    18d2:	06030463          	beqz	t1,193a <iexe+0x346>
    18d6:	06e6d263          	bge	a3,a4,193a <iexe+0x346>
    18da:	166d                	addi	a2,a2,-5
    18dc:	a390                	sb	a2,0(a5)
    18de:	87c1c783          	lbu	a5,-1924(gp) # 200001cc <err>
    18e2:	bb85                	j	1652 <iexe+0x5e>
    18e4:	89818793          	addi	a5,gp,-1896 # 200001e8 <gstki>
    18e8:	2394                	lbu	a3,0(a5)
    18ea:	4591                	li	a1,4
    18ec:	00d5f663          	bgeu	a1,a3,18f8 <iexe+0x304>
    18f0:	4799                	li	a5,6
    18f2:	a31c                	sb	a5,0(a4)
    18f4:	4501                	li	a0,0
    18f6:	bbd5                	j	16ea <iexe+0xf6>
    18f8:	87818313          	addi	t1,gp,-1928 # 200001c8 <clp>
    18fc:	00032383          	lw	t2,0(t1)
    1900:	00168513          	addi	a0,a3,1
    1904:	88018593          	addi	a1,gp,-1920 # 200001d0 <gstk>
    1908:	0004a283          	lw	t0,0(s1)
    190c:	00269713          	slli	a4,a3,0x2
    1910:	0ff57513          	andi	a0,a0,255
    1914:	972e                	add	a4,a4,a1
    1916:	050a                	slli	a0,a0,0x2
    1918:	00772023          	sw	t2,0(a4)
    191c:	95aa                	add	a1,a1,a0
    191e:	00268713          	addi	a4,a3,2
    1922:	00360693          	addi	a3,a2,3
    1926:	a398                	sb	a4,0(a5)
    1928:	0055a023          	sw	t0,0(a1)
    192c:	00c32023          	sw	a2,0(t1)
    1930:	c094                	sw	a3,0(s1)
    1932:	3238                	lbu	a4,3(a2)
    1934:	b9c1                	j	1604 <iexe+0x10>
    1936:	fad742e3          	blt	a4,a3,18da <iexe+0x2e6>
    193a:	ffc60713          	addi	a4,a2,-4
    193e:	ffb60793          	addi	a5,a2,-5
    1942:	070a                	slli	a4,a4,0x2
    1944:	078a                	slli	a5,a5,0x2
    1946:	972e                	add	a4,a4,a1
    1948:	97ae                	add	a5,a5,a1
    194a:	4314                	lw	a3,0(a4)
    194c:	4398                	lw	a4,0(a5)
    194e:	c094                	sw	a3,0(s1)
    1950:	86e1ac23          	sw	a4,-1928(gp) # 200001c8 <clp>
    1954:	87c1c783          	lbu	a5,-1924(gp) # 200001cc <err>
    1958:	b9ed                	j	1652 <iexe+0x5e>
    195a:	0785                	addi	a5,a5,1
    195c:	c43a                	sw	a4,8(sp)
    195e:	c09c                	sw	a5,0(s1)
    1960:	e7aff0ef          	jal	ra,fda <iexp>
    1964:	409c                	lw	a5,0(s1)
    1966:	c22a                	sw	a0,4(sp)
    1968:	4695                	li	a3,5
    196a:	2390                	lbu	a2,0(a5)
    196c:	4722                	lw	a4,8(sp)
    196e:	0ad60663          	beq	a2,a3,1a1a <iexe+0x426>
    1972:	67a1                	lui	a5,0x8
    1974:	17f9                	addi	a5,a5,-2
    1976:	4505                	li	a0,1
    1978:	4692                	lw	a3,4(sp)
    197a:	02d7d263          	bge	a5,a3,199e <iexe+0x3aa>
    197e:	4789                	li	a5,2
    1980:	a31c                	sb	a5,0(a4)
    1982:	4501                	li	a0,0
    1984:	b39d                	j	16ea <iexe+0xf6>
    1986:	93c18613          	addi	a2,gp,-1732 # 2000028c <listbuf>
    198a:	bd2d                	j	17c4 <iexe+0x1d0>
    198c:	93c18613          	addi	a2,gp,-1732 # 2000028c <listbuf>
    1990:	b571                	j	181c <iexe+0x228>
    1992:	77e1                	lui	a5,0xffff8
    1994:	4692                	lw	a3,4(sp)
    1996:	0785                	addi	a5,a5,1
    1998:	8f89                	sub	a5,a5,a0
    199a:	fef6c2e3          	blt	a3,a5,197e <iexe+0x38a>
    199e:	b7818793          	addi	a5,gp,-1160 # 200004c8 <lstki>
    19a2:	2394                	lbu	a3,0(a5)
    19a4:	c43e                	sw	a5,8(sp)
    19a6:	47a9                	li	a5,10
    19a8:	00d7f663          	bgeu	a5,a3,19b4 <iexe+0x3c0>
    19ac:	47a1                	li	a5,8
    19ae:	a31c                	sb	a5,0(a4)
    19b0:	4501                	li	a0,0
    19b2:	bb25                	j	16ea <iexe+0xf6>
    19b4:	8781a783          	lw	a5,-1928(gp) # 200001c8 <clp>
    19b8:	00269393          	slli	t2,a3,0x2
    19bc:	00168313          	addi	t1,a3,1
    19c0:	82be                	mv	t0,a5
    19c2:	b3c18793          	addi	a5,gp,-1220 # 2000048c <lstk>
    19c6:	93be                	add	t2,t2,a5
    19c8:	0053a023          	sw	t0,0(t2)
    19cc:	0ff37313          	andi	t1,t1,255
    19d0:	0004a283          	lw	t0,0(s1)
    19d4:	030a                	slli	t1,t1,0x2
    19d6:	933e                	add	t1,t1,a5
    19d8:	00268593          	addi	a1,a3,2
    19dc:	00532023          	sw	t0,0(t1)
    19e0:	00368613          	addi	a2,a3,3
    19e4:	0ff5f593          	andi	a1,a1,255
    19e8:	4312                	lw	t1,4(sp)
    19ea:	00468393          	addi	t2,a3,4
    19ee:	058a                	slli	a1,a1,0x2
    19f0:	0ff67613          	andi	a2,a2,255
    19f4:	95be                	add	a1,a1,a5
    19f6:	060a                	slli	a2,a2,0x2
    19f8:	0ff3f393          	andi	t2,t2,255
    19fc:	0065a023          	sw	t1,0(a1)
    1a00:	00c785b3          	add	a1,a5,a2
    1a04:	00239613          	slli	a2,t2,0x2
    1a08:	97b2                	add	a5,a5,a2
    1a0a:	4622                	lw	a2,8(sp)
    1a0c:	0695                	addi	a3,a3,5
    1a0e:	c188                	sw	a0,0(a1)
    1a10:	a214                	sb	a3,0(a2)
    1a12:	4682                	lw	a3,0(sp)
    1a14:	c394                	sw	a3,0(a5)
    1a16:	231c                	lbu	a5,0(a4)
    1a18:	b92d                	j	1652 <iexe+0x5e>
    1a1a:	0785                	addi	a5,a5,1
    1a1c:	c43a                	sw	a4,8(sp)
    1a1e:	c09c                	sw	a5,0(s1)
    1a20:	dbaff0ef          	jal	ra,fda <iexp>
    1a24:	4722                	lw	a4,8(sp)
    1a26:	f60546e3          	bltz	a0,1992 <iexe+0x39e>
    1a2a:	d935                	beqz	a0,199e <iexe+0x3aa>
    1a2c:	67a1                	lui	a5,0x8
    1a2e:	17fd                	addi	a5,a5,-1
    1a30:	8f89                	sub	a5,a5,a0
    1a32:	b799                	j	1978 <iexe+0x384>

00001a34 <irun>:
    1a34:	e6cfe2ef          	jal	t0,a0 <__riscv_save_0>
    1a38:	93c18793          	addi	a5,gp,-1732 # 2000028c <listbuf>
    1a3c:	2398                	lbu	a4,0(a5)
    1a3e:	87818413          	addi	s0,gp,-1928 # 200001c8 <clp>
    1a42:	88018c23          	sb	zero,-1896(gp) # 200001e8 <gstki>
    1a46:	b6018c23          	sb	zero,-1160(gp) # 200004c8 <lstki>
    1a4a:	c01c                	sw	a5,0(s0)
    1a4c:	1171                	addi	sp,sp,-4
    1a4e:	c31d                	beqz	a4,1a74 <irun+0x40>
    1a50:	87c18793          	addi	a5,gp,-1924 # 200001cc <err>
    1a54:	93c18513          	addi	a0,gp,-1732 # 2000028c <listbuf>
    1a58:	87418493          	addi	s1,gp,-1932 # 200001c4 <cip>
    1a5c:	c03e                	sw	a5,0(sp)
    1a5e:	a021                	j	1a66 <irun+0x32>
    1a60:	c008                	sw	a0,0(s0)
    1a62:	211c                	lbu	a5,0(a0)
    1a64:	cb81                	beqz	a5,1a74 <irun+0x40>
    1a66:	050d                	addi	a0,a0,3
    1a68:	c088                	sw	a0,0(s1)
    1a6a:	b8bff0ef          	jal	ra,15f4 <iexe>
    1a6e:	4782                	lw	a5,0(sp)
    1a70:	239c                	lbu	a5,0(a5)
    1a72:	d7fd                	beqz	a5,1a60 <irun+0x2c>
    1a74:	0111                	addi	sp,sp,4
    1a76:	e34fe06f          	j	aa <__riscv_restore_0>

00001a7a <ilist>:
    1a7a:	e26fe2ef          	jal	t0,a0 <__riscv_save_0>
    1a7e:	8741a783          	lw	a5,-1932(gp) # 200001c4 <cip>
    1a82:	02400713          	li	a4,36
    1a86:	4581                	li	a1,0
    1a88:	2394                	lbu	a3,0(a5)
    1a8a:	00e69863          	bne	a3,a4,1a9a <ilist+0x20>
    1a8e:	23ac                	lbu	a1,2(a5)
    1a90:	339c                	lbu	a5,1(a5)
    1a92:	05a2                	slli	a1,a1,0x8
    1a94:	8ddd                	or	a1,a1,a5
    1a96:	05c2                	slli	a1,a1,0x10
    1a98:	85c1                	srai	a1,a1,0x10
    1a9a:	93c18713          	addi	a4,gp,-1732 # 2000028c <listbuf>
    1a9e:	2310                	lbu	a2,0(a4)
    1aa0:	87818413          	addi	s0,gp,-1928 # 200001c8 <clp>
    1aa4:	c018                	sw	a4,0(s0)
    1aa6:	ca15                	beqz	a2,1ada <ilist+0x60>
    1aa8:	2328                	lbu	a0,2(a4)
    1aaa:	3314                	lbu	a3,1(a4)
    1aac:	0522                	slli	a0,a0,0x8
    1aae:	00d56733          	or	a4,a0,a3
    1ab2:	0742                	slli	a4,a4,0x10
    1ab4:	8741                	srai	a4,a4,0x10
    1ab6:	02b75563          	bge	a4,a1,1ae0 <ilist+0x66>
    1aba:	93c18793          	addi	a5,gp,-1732 # 2000028c <listbuf>
    1abe:	a811                	j	1ad2 <ilist+0x58>
    1ac0:	23a8                	lbu	a0,2(a5)
    1ac2:	3394                	lbu	a3,1(a5)
    1ac4:	0522                	slli	a0,a0,0x8
    1ac6:	00d56733          	or	a4,a0,a3
    1aca:	0742                	slli	a4,a4,0x10
    1acc:	8741                	srai	a4,a4,0x10
    1ace:	00b75863          	bge	a4,a1,1ade <ilist+0x64>
    1ad2:	97b2                	add	a5,a5,a2
    1ad4:	2390                	lbu	a2,0(a5)
    1ad6:	f66d                	bnez	a2,1ac0 <ilist+0x46>
    1ad8:	c01c                	sw	a5,0(s0)
    1ada:	dd0fe06f          	j	aa <__riscv_restore_0>
    1ade:	c01c                	sw	a5,0(s0)
    1ae0:	87c18493          	addi	s1,gp,-1924 # 200001cc <err>
    1ae4:	a819                	j	1afa <ilist+0x80>
    1ae6:	2375                	jal	2092 <video_newline>
    1ae8:	401c                	lw	a5,0(s0)
    1aea:	2398                	lbu	a4,0(a5)
    1aec:	97ba                	add	a5,a5,a4
    1aee:	c01c                	sw	a5,0(s0)
    1af0:	2398                	lbu	a4,0(a5)
    1af2:	d765                	beqz	a4,1ada <ilist+0x60>
    1af4:	23a8                	lbu	a0,2(a5)
    1af6:	3394                	lbu	a3,1(a5)
    1af8:	0522                	slli	a0,a0,0x8
    1afa:	8d55                	or	a0,a0,a3
    1afc:	0542                	slli	a0,a0,0x10
    1afe:	4581                	li	a1,0
    1b00:	8541                	srai	a0,a0,0x10
    1b02:	bcffe0ef          	jal	ra,6d0 <putnum>
    1b06:	02000513          	li	a0,32
    1b0a:	29e5                	jal	2002 <video_putch>
    1b0c:	4008                	lw	a0,0(s0)
    1b0e:	050d                	addi	a0,a0,3
    1b10:	ad6ff0ef          	jal	ra,de6 <putlist>
    1b14:	209c                	lbu	a5,0(s1)
    1b16:	dbe1                	beqz	a5,1ae6 <ilist+0x6c>
    1b18:	d92fe06f          	j	aa <__riscv_restore_0>

00001b1c <isave>:
    1b1c:	d84fe2ef          	jal	t0,a0 <__riscv_save_0>
    1b20:	1141                	addi	sp,sp,-16
    1b22:	08004437          	lui	s0,0x8004
    1b26:	2ef000ef          	jal	ra,2614 <FLASH_Unlock_Fast>
    1b2a:	e0040413          	addi	s0,s0,-512 # 8003e00 <_data_lma+0x8000118>
    1b2e:	080044b7          	lui	s1,0x8004
    1b32:	8522                	mv	a0,s0
    1b34:	04040413          	addi	s0,s0,64
    1b38:	36b000ef          	jal	ra,26a2 <FLASH_ErasePage_Fast>
    1b3c:	fe941be3          	bne	s0,s1,1b32 <isave+0x16>
    1b40:	93c18793          	addi	a5,gp,-1732 # 2000028c <listbuf>
    1b44:	c63e                	sw	a5,12(sp)
    1b46:	04078793          	addi	a5,a5,64 # 8040 <_data_lma+0x4358>
    1b4a:	c03e                	sw	a5,0(sp)
    1b4c:	e0040793          	addi	a5,s0,-512
    1b50:	c202                	sw	zero,4(sp)
    1b52:	c43e                	sw	a5,8(sp)
    1b54:	2e9000ef          	jal	ra,263c <FLASH_BufReset>
    1b58:	47a2                	lw	a5,8(sp)
    1b5a:	4732                	lw	a4,12(sp)
    1b5c:	40e78433          	sub	s0,a5,a4
    1b60:	4782                	lw	a5,0(sp)
    1b62:	fc078493          	addi	s1,a5,-64
    1b66:	4792                	lw	a5,4(sp)
    1b68:	8c1d                	sub	s0,s0,a5
    1b6a:	30b8                	lbu	a4,3(s1)
    1b6c:	20b0                	lbu	a2,2(s1)
    1b6e:	3094                	lbu	a3,1(s1)
    1b70:	208c                	lbu	a1,0(s1)
    1b72:	0642                	slli	a2,a2,0x10
    1b74:	0762                	slli	a4,a4,0x18
    1b76:	9732                	add	a4,a4,a2
    1b78:	06a2                	slli	a3,a3,0x8
    1b7a:	9736                	add	a4,a4,a3
    1b7c:	00940533          	add	a0,s0,s1
    1b80:	95ba                	add	a1,a1,a4
    1b82:	2e7000ef          	jal	ra,2668 <FLASH_BufLoad>
    1b86:	4782                	lw	a5,0(sp)
    1b88:	0491                	addi	s1,s1,4
    1b8a:	fe9790e3          	bne	a5,s1,1b6a <isave+0x4e>
    1b8e:	47a2                	lw	a5,8(sp)
    1b90:	04078413          	addi	s0,a5,64
    1b94:	853e                	mv	a0,a5
    1b96:	c422                	sw	s0,8(sp)
    1b98:	345000ef          	jal	ra,26dc <FLASH_ProgramPage_Fast>
    1b9c:	4792                	lw	a5,4(sp)
    1b9e:	04078793          	addi	a5,a5,64
    1ba2:	c23e                	sw	a5,4(sp)
    1ba4:	4782                	lw	a5,0(sp)
    1ba6:	04078793          	addi	a5,a5,64
    1baa:	c03e                	sw	a5,0(sp)
    1bac:	080047b7          	lui	a5,0x8004
    1bb0:	faf412e3          	bne	s0,a5,1b54 <isave+0x38>
    1bb4:	27f000ef          	jal	ra,2632 <FLASH_Lock_Fast>
    1bb8:	0141                	addi	sp,sp,16
    1bba:	cf0fe06f          	j	aa <__riscv_restore_0>

00001bbe <icom>:
    1bbe:	ce2fe2ef          	jal	t0,a0 <__riscv_save_0>
    1bc2:	89c18713          	addi	a4,gp,-1892 # 200001ec <ibuf>
    1bc6:	231c                	lbu	a5,0(a4)
    1bc8:	87418693          	addi	a3,gp,-1932 # 200001c4 <cip>
    1bcc:	1785                	addi	a5,a5,-31
    1bce:	c298                	sw	a4,0(a3)
    1bd0:	0ff7f793          	andi	a5,a5,255
    1bd4:	4611                	li	a2,4
    1bd6:	0cf66663          	bltu	a2,a5,1ca2 <icom+0xe4>
    1bda:	660d                	lui	a2,0x3
    1bdc:	078a                	slli	a5,a5,0x2
    1bde:	1e860613          	addi	a2,a2,488 # 31e8 <PS2Keymap_Japanese+0x2a8>
    1be2:	97b2                	add	a5,a5,a2
    1be4:	439c                	lw	a5,0(a5)
    1be6:	8782                	jr	a5
    1be8:	3310                	lbu	a2,1(a4)
    1bea:	0705                	addi	a4,a4,1
    1bec:	c298                	sw	a4,0(a3)
    1bee:	02700793          	li	a5,39
    1bf2:	0af60c63          	beq	a2,a5,1caa <icom+0xec>
    1bf6:	4751                	li	a4,20
    1bf8:	86e18e23          	sb	a4,-1924(gp) # 200001cc <err>
    1bfc:	caefe06f          	j	aa <__riscv_restore_0>
    1c00:	3310                	lbu	a2,1(a4)
    1c02:	0705                	addi	a4,a4,1
    1c04:	c298                	sw	a4,0(a3)
    1c06:	02700793          	li	a5,39
    1c0a:	fef616e3          	bne	a2,a5,1bf6 <icom+0x38>
    1c0e:	080046b7          	lui	a3,0x8004
    1c12:	93c18613          	addi	a2,gp,-1732 # 2000028c <listbuf>
    1c16:	e0068693          	addi	a3,a3,-512 # 8003e00 <_data_lma+0x8000118>
    1c1a:	93c18793          	addi	a5,gp,-1732 # 2000028c <listbuf>
    1c1e:	20060613          	addi	a2,a2,512
    1c22:	8e9d                	sub	a3,a3,a5
    1c24:	00f68733          	add	a4,a3,a5
    1c28:	2318                	lbu	a4,0(a4)
    1c2a:	0785                	addi	a5,a5,1
    1c2c:	fee78fa3          	sb	a4,-1(a5) # 8003fff <_data_lma+0x8000317>
    1c30:	fec79ae3          	bne	a5,a2,1c24 <icom+0x66>
    1c34:	b7e1                	j	1bfc <icom+0x3e>
    1c36:	3310                	lbu	a2,1(a4)
    1c38:	00170793          	addi	a5,a4,1
    1c3c:	c29c                	sw	a5,0(a3)
    1c3e:	02700793          	li	a5,39
    1c42:	00f60563          	beq	a2,a5,1c4c <icom+0x8e>
    1c46:	2358                	lbu	a4,4(a4)
    1c48:	faf717e3          	bne	a4,a5,1bf6 <icom+0x38>
    1c4c:	353d                	jal	1a7a <ilist>
    1c4e:	b77d                	j	1bfc <icom+0x3e>
    1c50:	0705                	addi	a4,a4,1
    1c52:	c298                	sw	a4,0(a3)
    1c54:	33c5                	jal	1a34 <irun>
    1c56:	c54fe06f          	j	aa <__riscv_restore_0>
    1c5a:	3310                	lbu	a2,1(a4)
    1c5c:	0705                	addi	a4,a4,1
    1c5e:	c298                	sw	a4,0(a3)
    1c60:	02700793          	li	a5,39
    1c64:	f8f619e3          	bne	a2,a5,1bf6 <icom+0x38>
    1c68:	b7c18793          	addi	a5,gp,-1156 # 200004cc <var>
    1c6c:	03478713          	addi	a4,a5,52
    1c70:	00079023          	sh	zero,0(a5)
    1c74:	0789                	addi	a5,a5,2
    1c76:	fee79de3          	bne	a5,a4,1c70 <icom+0xb2>
    1c7a:	83418793          	addi	a5,gp,-1996 # 20000184 <arr>
    1c7e:	04078713          	addi	a4,a5,64
    1c82:	00079023          	sh	zero,0(a5)
    1c86:	0789                	addi	a5,a5,2
    1c88:	fef71de3          	bne	a4,a5,1c82 <icom+0xc4>
    1c8c:	88018c23          	sb	zero,-1896(gp) # 200001e8 <gstki>
    1c90:	93c18793          	addi	a5,gp,-1732 # 2000028c <listbuf>
    1c94:	b6018c23          	sb	zero,-1160(gp) # 200004c8 <lstki>
    1c98:	00078023          	sb	zero,0(a5)
    1c9c:	86f1ac23          	sw	a5,-1928(gp) # 200001c8 <clp>
    1ca0:	bfb1                	j	1bfc <icom+0x3e>
    1ca2:	953ff0ef          	jal	ra,15f4 <iexe>
    1ca6:	c04fe06f          	j	aa <__riscv_restore_0>
    1caa:	3d8d                	jal	1b1c <isave>
    1cac:	bf81                	j	1bfc <icom+0x3e>

00001cae <error>:
    1cae:	bf2fe2ef          	jal	t0,a0 <__riscv_save_0>
    1cb2:	87c18793          	addi	a5,gp,-1924 # 200001cc <err>
    1cb6:	1161                	addi	sp,sp,-8
    1cb8:	c03e                	sw	a5,0(sp)
    1cba:	239c                	lbu	a5,0(a5)
    1cbc:	cba5                	beqz	a5,1d2c <error+0x7e>
    1cbe:	8741a703          	lw	a4,-1932(gp) # 200001c4 <cip>
    1cc2:	93c18793          	addi	a5,gp,-1732 # 2000028c <listbuf>
    1cc6:	08f76f63          	bltu	a4,a5,1d64 <error+0xb6>
    1cca:	20078793          	addi	a5,a5,512
    1cce:	08f77b63          	bgeu	a4,a5,1d64 <error+0xb6>
    1cd2:	87818793          	addi	a5,gp,-1928 # 200001c8 <clp>
    1cd6:	c23e                	sw	a5,4(sp)
    1cd8:	439c                	lw	a5,0(a5)
    1cda:	239c                	lbu	a5,0(a5)
    1cdc:	c7c1                	beqz	a5,1d64 <error+0xb6>
    1cde:	2e55                	jal	2092 <video_newline>
    1ce0:	000037b7          	lui	a5,0x3
    1ce4:	04900493          	li	s1,73
    1ce8:	04c00513          	li	a0,76
    1cec:	22c78413          	addi	s0,a5,556 # 322c <PS2Keymap_Japanese+0x2ec>
    1cf0:	a021                	j	1cf8 <error+0x4a>
    1cf2:	8526                	mv	a0,s1
    1cf4:	00140483          	lb	s1,1(s0)
    1cf8:	0ff57513          	andi	a0,a0,255
    1cfc:	0405                	addi	s0,s0,1
    1cfe:	2611                	jal	2002 <video_putch>
    1d00:	f8ed                	bnez	s1,1cf2 <error+0x44>
    1d02:	4792                	lw	a5,4(sp)
    1d04:	439c                	lw	a5,0(a5)
    1d06:	2398                	lbu	a4,0(a5)
    1d08:	cf49                	beqz	a4,1da2 <error+0xf4>
    1d0a:	23a8                	lbu	a0,2(a5)
    1d0c:	339c                	lbu	a5,1(a5)
    1d0e:	0522                	slli	a0,a0,0x8
    1d10:	8d5d                	or	a0,a0,a5
    1d12:	0542                	slli	a0,a0,0x10
    1d14:	8541                	srai	a0,a0,0x10
    1d16:	4581                	li	a1,0
    1d18:	9b9fe0ef          	jal	ra,6d0 <putnum>
    1d1c:	02000513          	li	a0,32
    1d20:	24cd                	jal	2002 <video_putch>
    1d22:	4792                	lw	a5,4(sp)
    1d24:	4388                	lw	a0,0(a5)
    1d26:	050d                	addi	a0,a0,3
    1d28:	8beff0ef          	jal	ra,de6 <putlist>
    1d2c:	269d                	jal	2092 <video_newline>
    1d2e:	4782                	lw	a5,0(sp)
    1d30:	239c                	lbu	a5,0(a5)
    1d32:	00279713          	slli	a4,a5,0x2
    1d36:	200007b7          	lui	a5,0x20000
    1d3a:	00078793          	mv	a5,a5
    1d3e:	97ba                	add	a5,a5,a4
    1d40:	4384                	lw	s1,0(a5)
    1d42:	00048503          	lb	a0,0(s1) # 8004000 <_data_lma+0x8000318>
    1d46:	c901                	beqz	a0,1d56 <error+0xa8>
    1d48:	0ff57513          	andi	a0,a0,255
    1d4c:	0485                	addi	s1,s1,1
    1d4e:	2c55                	jal	2002 <video_putch>
    1d50:	00048503          	lb	a0,0(s1)
    1d54:	f975                	bnez	a0,1d48 <error+0x9a>
    1d56:	2e35                	jal	2092 <video_newline>
    1d58:	4782                	lw	a5,0(sp)
    1d5a:	00078023          	sb	zero,0(a5) # 20000000 <_data_vma>
    1d5e:	0121                	addi	sp,sp,8
    1d60:	b4afe06f          	j	aa <__riscv_restore_0>
    1d64:	263d                	jal	2092 <video_newline>
    1d66:	000034b7          	lui	s1,0x3
    1d6a:	04f00413          	li	s0,79
    1d6e:	05900513          	li	a0,89
    1d72:	23448493          	addi	s1,s1,564 # 3234 <PS2Keymap_Japanese+0x2f4>
    1d76:	a021                	j	1d7e <error+0xd0>
    1d78:	8522                	mv	a0,s0
    1d7a:	00148403          	lb	s0,1(s1)
    1d7e:	0ff57513          	andi	a0,a0,255
    1d82:	0485                	addi	s1,s1,1
    1d84:	2cbd                	jal	2002 <video_putch>
    1d86:	f86d                	bnez	s0,1d78 <error+0xca>
    1d88:	8ec18503          	lb	a0,-1812(gp) # 2000023c <lbuf>
    1d8c:	d145                	beqz	a0,1d2c <error+0x7e>
    1d8e:	8ec18493          	addi	s1,gp,-1812 # 2000023c <lbuf>
    1d92:	0ff57513          	andi	a0,a0,255
    1d96:	0485                	addi	s1,s1,1
    1d98:	24ad                	jal	2002 <video_putch>
    1d9a:	00048503          	lb	a0,0(s1)
    1d9e:	f975                	bnez	a0,1d92 <error+0xe4>
    1da0:	b771                	j	1d2c <error+0x7e>
    1da2:	6521                	lui	a0,0x8
    1da4:	157d                	addi	a0,a0,-1
    1da6:	bf85                	j	1d16 <error+0x68>

00001da8 <basic>:
    1da8:	af8fe2ef          	jal	t0,a0 <__riscv_save_0>
    1dac:	b7c18793          	addi	a5,gp,-1156 # 200004cc <var>
    1db0:	03478713          	addi	a4,a5,52
    1db4:	00079023          	sh	zero,0(a5)
    1db8:	0789                	addi	a5,a5,2
    1dba:	fee79de3          	bne	a5,a4,1db4 <basic+0xc>
    1dbe:	83418793          	addi	a5,gp,-1996 # 20000184 <arr>
    1dc2:	04078713          	addi	a4,a5,64
    1dc6:	00079023          	sh	zero,0(a5)
    1dca:	0789                	addi	a5,a5,2
    1dcc:	fef71de3          	bne	a4,a5,1dc6 <basic+0x1e>
    1dd0:	88018c23          	sb	zero,-1896(gp) # 200001e8 <gstki>
    1dd4:	93c18793          	addi	a5,gp,-1732 # 2000028c <listbuf>
    1dd8:	b6018c23          	sb	zero,-1160(gp) # 200004c8 <lstki>
    1ddc:	00003437          	lui	s0,0x3
    1de0:	00078023          	sb	zero,0(a5)
    1de4:	86f1ac23          	sw	a5,-1928(gp) # 200001c8 <clp>
    1de8:	04f00493          	li	s1,79
    1dec:	05400513          	li	a0,84
    1df0:	1fc40413          	addi	s0,s0,508 # 31fc <PS2Keymap_Japanese+0x2bc>
    1df4:	a021                	j	1dfc <basic+0x54>
    1df6:	8526                	mv	a0,s1
    1df8:	00140483          	lb	s1,1(s0)
    1dfc:	0ff57513          	andi	a0,a0,255
    1e00:	0405                	addi	s0,s0,1
    1e02:	2401                	jal	2002 <video_putch>
    1e04:	f8ed                	bnez	s1,1df6 <basic+0x4e>
    1e06:	2471                	jal	2092 <video_newline>
    1e08:	00003437          	lui	s0,0x3
    1e0c:	04800493          	li	s1,72
    1e10:	04300513          	li	a0,67
    1e14:	21440413          	addi	s0,s0,532 # 3214 <PS2Keymap_Japanese+0x2d4>
    1e18:	a021                	j	1e20 <basic+0x78>
    1e1a:	8526                	mv	a0,s1
    1e1c:	00140483          	lb	s1,1(s0)
    1e20:	0ff57513          	andi	a0,a0,255
    1e24:	0405                	addi	s0,s0,1
    1e26:	2af1                	jal	2002 <video_putch>
    1e28:	f8ed                	bnez	s1,1e1a <basic+0x72>
    1e2a:	00003437          	lui	s0,0x3
    1e2e:	04500493          	li	s1,69
    1e32:	02000513          	li	a0,32
    1e36:	22040413          	addi	s0,s0,544 # 3220 <PS2Keymap_Japanese+0x2e0>
    1e3a:	a021                	j	1e42 <basic+0x9a>
    1e3c:	8526                	mv	a0,s1
    1e3e:	00140483          	lb	s1,1(s0)
    1e42:	0ff57513          	andi	a0,a0,255
    1e46:	0405                	addi	s0,s0,1
    1e48:	2a6d                	jal	2002 <video_putch>
    1e4a:	f8ed                	bnez	s1,1e3c <basic+0x94>
    1e4c:	2499                	jal	2092 <video_newline>
    1e4e:	87c18413          	addi	s0,gp,-1924 # 200001cc <err>
    1e52:	3db1                	jal	1cae <error>
    1e54:	89c18493          	addi	s1,gp,-1892 # 200001ec <ibuf>
    1e58:	a021                	j	1e60 <basic+0xb8>
    1e5a:	d65ff0ef          	jal	ra,1bbe <icom>
    1e5e:	3d81                	jal	1cae <error>
    1e60:	03e00513          	li	a0,62
    1e64:	2a79                	jal	2002 <video_putch>
    1e66:	f8afe0ef          	jal	ra,5f0 <c_gets>
    1e6a:	a35fe0ef          	jal	ra,89e <toktoi>
    1e6e:	201c                	lbu	a5,0(s0)
    1e70:	f7fd                	bnez	a5,1e5e <basic+0xb6>
    1e72:	209c                	lbu	a5,0(s1)
    1e74:	02400713          	li	a4,36
    1e78:	fee791e3          	bne	a5,a4,1e5a <basic+0xb2>
    1e7c:	a088                	sb	a0,0(s1)
    1e7e:	e03fe0ef          	jal	ra,c80 <inslist>
    1e82:	201c                	lbu	a5,0(s0)
    1e84:	dff1                	beqz	a5,1e60 <basic+0xb8>
    1e86:	bfe1                	j	1e5e <basic+0xb6>

00001e88 <NMI_Handler>:
    1e88:	30200073          	mret

00001e8c <HardFault_Handler>:
    1e8c:	a001                	j	1e8c <HardFault_Handler>

00001e8e <video_init>:
    1e8e:	a12fe2ef          	jal	t0,a0 <__riscv_save_0>
    1e92:	6509                	lui	a0,0x2
    1e94:	fbc10113          	addi	sp,sp,-68
    1e98:	4585                	li	a1,1
    1e9a:	81050513          	addi	a0,a0,-2032 # 1810 <iexe+0x21c>
    1e9e:	d002                	sw	zero,32(sp)
    1ea0:	d202                	sw	zero,36(sp)
    1ea2:	d402                	sw	zero,40(sp)
    1ea4:	d602                	sw	zero,44(sp)
    1ea6:	c402                	sw	zero,8(sp)
    1ea8:	c602                	sw	zero,12(sp)
    1eaa:	00011823          	sh	zero,16(sp)
    1eae:	ca02                	sw	zero,20(sp)
    1eb0:	cc02                	sw	zero,24(sp)
    1eb2:	ce02                	sw	zero,28(sp)
    1eb4:	d802                	sw	zero,48(sp)
    1eb6:	da02                	sw	zero,52(sp)
    1eb8:	dc02                	sw	zero,56(sp)
    1eba:	de02                	sw	zero,60(sp)
    1ebc:	04011023          	sh	zero,64(sp)
    1ec0:	c002                	sw	zero,0(sp)
    1ec2:	c202                	sw	zero,4(sp)
    1ec4:	24d000ef          	jal	ra,2910 <RCC_APB2PeriphClockCmd>
    1ec8:	47e1                	li	a5,24
    1eca:	448d                	li	s1,3
    1ecc:	084c                	addi	a1,sp,20
    1ece:	4741                	li	a4,16
    1ed0:	40011537          	lui	a0,0x40011
    1ed4:	82f8                	sh	a4,20(sp)
    1ed6:	ce3e                	sw	a5,28(sp)
    1ed8:	cc26                	sw	s1,24(sp)
    1eda:	03b000ef          	jal	ra,2714 <GPIO_Init>
    1ede:	47e1                	li	a5,24
    1ee0:	084c                	addi	a1,sp,20
    1ee2:	04000713          	li	a4,64
    1ee6:	40011537          	lui	a0,0x40011
    1eea:	ce3e                	sw	a5,28(sp)
    1eec:	82f8                	sh	a4,20(sp)
    1eee:	cc26                	sw	s1,24(sp)
    1ef0:	025000ef          	jal	ra,2714 <GPIO_Init>
    1ef4:	40013437          	lui	s0,0x40013
    1ef8:	6705                	lui	a4,0x1
    1efa:	002c                	addi	a1,sp,8
    1efc:	c0040513          	addi	a0,s0,-1024 # 40012c00 <__global_pointer$+0x200122b0>
    1f00:	bea70713          	addi	a4,a4,-1046 # bea <toktoi+0x34c>
    1f04:	c63a                	sw	a4,12(sp)
    1f06:	c402                	sw	zero,8(sp)
    1f08:	64c1                	lui	s1,0x10
    1f0a:	28f000ef          	jal	ra,2998 <TIM_TimeBaseInit>
    1f0e:	07048493          	addi	s1,s1,112 # 10070 <_data_lma+0xc388>
    1f12:	100c                	addi	a1,sp,32
    1f14:	c0040513          	addi	a0,s0,-1024
    1f18:	0e100713          	li	a4,225
    1f1c:	d026                	sw	s1,32(sp)
    1f1e:	02e11323          	sh	a4,38(sp)
    1f22:	02011423          	sh	zero,40(sp)
    1f26:	391000ef          	jal	ra,2ab6 <TIM_OC4Init>
    1f2a:	15e00713          	li	a4,350
    1f2e:	100c                	addi	a1,sp,32
    1f30:	c0040513          	addi	a0,s0,-1024
    1f34:	02e11323          	sh	a4,38(sp)
    1f38:	d026                	sw	s1,32(sp)
    1f3a:	02011423          	sh	zero,40(sp)
    1f3e:	2cd000ef          	jal	ra,2a0a <TIM_OC3Init>
    1f42:	c0040513          	addi	a0,s0,-1024
    1f46:	4585                	li	a1,1
    1f48:	407000ef          	jal	ra,2b4e <TIM_CtrlPWMOutputs>
    1f4c:	c0040513          	addi	a0,s0,-1024
    1f50:	4581                	li	a1,0
    1f52:	447000ef          	jal	ra,2b98 <TIM_OC3PreloadConfig>
    1f56:	c0040513          	addi	a0,s0,-1024
    1f5a:	4581                	li	a1,0
    1f5c:	44b000ef          	jal	ra,2ba6 <TIM_OC4PreloadConfig>
    1f60:	c0040513          	addi	a0,s0,-1024
    1f64:	4585                	li	a1,1
    1f66:	417000ef          	jal	ra,2b7c <TIM_ARRPreloadConfig>
    1f6a:	c0040513          	addi	a0,s0,-1024
    1f6e:	4585                	li	a1,1
    1f70:	3c5000ef          	jal	ra,2b34 <TIM_Cmd>
    1f74:	0104c737          	lui	a4,0x104c
    1f78:	d83a                	sw	a4,48(sp)
    1f7a:	47e1                	li	a5,24
    1f7c:	00020737          	lui	a4,0x20
    1f80:	180c                	addi	a1,sp,48
    1f82:	da3a                	sw	a4,52(sp)
    1f84:	de3e                	sw	a5,60(sp)
    1f86:	02000737          	lui	a4,0x2000
    1f8a:	479d                	li	a5,7
    1f8c:	40013537          	lui	a0,0x40013
    1f90:	dc3a                	sw	a4,56(sp)
    1f92:	04f11023          	sh	a5,64(sp)
    1f96:	199000ef          	jal	ra,292e <SPI_Init>
    1f9a:	4605                	li	a2,1
    1f9c:	4589                	li	a1,2
    1f9e:	40013537          	lui	a0,0x40013
    1fa2:	1e3000ef          	jal	ra,2984 <SPI_I2S_DMACmd>
    1fa6:	4585                	li	a1,1
    1fa8:	40013537          	lui	a0,0x40013
    1fac:	1bd000ef          	jal	ra,2968 <SPI_Cmd>
    1fb0:	22500793          	li	a5,549
    1fb4:	850a                	mv	a0,sp
    1fb6:	807c                	sh	a5,0(sp)
    1fb8:	4785                	li	a5,1
    1fba:	c23e                	sw	a5,4(sp)
    1fbc:	00010123          	sb	zero,2(sp)
    1fc0:	05f000ef          	jal	ra,281e <NVIC_Init>
    1fc4:	4605                	li	a2,1
    1fc6:	45a1                	li	a1,8
    1fc8:	c0040513          	addi	a0,s0,-1024
    1fcc:	39d000ef          	jal	ra,2b68 <TIM_ITConfig>
    1fd0:	0c000513          	li	a0,192
    1fd4:	421000ef          	jal	ra,2bf4 <malloc>
    1fd8:	baa1ae23          	sw	a0,-1092(gp) # 2000050c <vram>
    1fdc:	4545                	li	a0,17
    1fde:	417000ef          	jal	ra,2bf4 <malloc>
    1fe2:	84aa                	mv	s1,a0
    1fe4:	bb418413          	addi	s0,gp,-1100 # 20000504 <scandata>
    1fe8:	4545                	li	a0,17
    1fea:	c004                	sw	s1,0(s0)
    1fec:	409000ef          	jal	ra,2bf4 <malloc>
    1ff0:	c048                	sw	a0,4(s0)
    1ff2:	00048823          	sb	zero,16(s1)
    1ff6:	00050823          	sb	zero,16(a0) # 40013010 <__global_pointer$+0x200126c0>
    1ffa:	04410113          	addi	sp,sp,68
    1ffe:	8acfe06f          	j	aa <__riscv_restore_0>

00002002 <video_putch>:
    2002:	bb018793          	addi	a5,gp,-1104 # 20000500 <cursor_x>
    2006:	4721                	li	a4,8
    2008:	238c                	lbu	a1,0(a5)
    200a:	06e50563          	beq	a0,a4,2074 <video_putch+0x72>
    200e:	892fe2ef          	jal	t0,a0 <__riscv_save_0>
    2012:	bb118413          	addi	s0,gp,-1103 # 20000501 <cursor_y>
    2016:	2010                	lbu	a2,0(s0)
    2018:	bbc18493          	addi	s1,gp,-1092 # 2000050c <vram>
    201c:	4098                	lw	a4,0(s1)
    201e:	0612                	slli	a2,a2,0x4
    2020:	46bd                	li	a3,15
    2022:	9732                	add	a4,a4,a2
    2024:	972e                	add	a4,a4,a1
    2026:	a308                	sb	a0,0(a4)
    2028:	2398                	lbu	a4,0(a5)
    202a:	0705                	addi	a4,a4,1
    202c:	0ff77713          	andi	a4,a4,255
    2030:	00e6e563          	bltu	a3,a4,203a <video_putch+0x38>
    2034:	a398                	sb	a4,0(a5)
    2036:	874fe06f          	j	aa <__riscv_restore_0>
    203a:	2018                	lbu	a4,0(s0)
    203c:	00078023          	sb	zero,0(a5)
    2040:	46ad                	li	a3,11
    2042:	00170793          	addi	a5,a4,1 # 2000001 <_data_lma+0x1ffc319>
    2046:	0ff7f793          	andi	a5,a5,255
    204a:	a01c                	sb	a5,0(s0)
    204c:	fef6f5e3          	bgeu	a3,a5,2036 <video_putch+0x34>
    2050:	4088                	lw	a0,0(s1)
    2052:	0b000613          	li	a2,176
    2056:	01050593          	addi	a1,a0,16
    205a:	3a9000ef          	jal	ra,2c02 <memmove>
    205e:	4088                	lw	a0,0(s1)
    2060:	4641                	li	a2,16
    2062:	4581                	li	a1,0
    2064:	0b050513          	addi	a0,a0,176
    2068:	8e2fe0ef          	jal	ra,14a <memset>
    206c:	46ad                	li	a3,11
    206e:	a014                	sb	a3,0(s0)
    2070:	83afe06f          	j	aa <__riscv_restore_0>
    2074:	e991                	bnez	a1,2088 <video_putch+0x86>
    2076:	bb118713          	addi	a4,gp,-1103 # 20000501 <cursor_y>
    207a:	2314                	lbu	a3,0(a4)
    207c:	ca91                	beqz	a3,2090 <video_putch+0x8e>
    207e:	16fd                	addi	a3,a3,-1
    2080:	a314                	sb	a3,0(a4)
    2082:	473d                	li	a4,15
    2084:	a398                	sb	a4,0(a5)
    2086:	8082                	ret
    2088:	fff58713          	addi	a4,a1,-1
    208c:	a398                	sb	a4,0(a5)
    208e:	8082                	ret
    2090:	8082                	ret

00002092 <video_newline>:
    2092:	80efe2ef          	jal	t0,a0 <__riscv_save_0>
    2096:	bb118413          	addi	s0,gp,-1103 # 20000501 <cursor_y>
    209a:	201c                	lbu	a5,0(s0)
    209c:	ba018823          	sb	zero,-1104(gp) # 20000500 <cursor_x>
    20a0:	0785                	addi	a5,a5,1
    20a2:	0ff7f793          	andi	a5,a5,255
    20a6:	a01c                	sb	a5,0(s0)
    20a8:	44ad                	li	s1,11
    20aa:	00f4e463          	bltu	s1,a5,20b2 <video_newline+0x20>
    20ae:	ffdfd06f          	j	aa <__riscv_restore_0>
    20b2:	bbc18793          	addi	a5,gp,-1092 # 2000050c <vram>
    20b6:	4388                	lw	a0,0(a5)
    20b8:	0b000613          	li	a2,176
    20bc:	01050593          	addi	a1,a0,16
    20c0:	343000ef          	jal	ra,2c02 <memmove>
    20c4:	bbc18793          	addi	a5,gp,-1092 # 2000050c <vram>
    20c8:	4388                	lw	a0,0(a5)
    20ca:	4641                	li	a2,16
    20cc:	4581                	li	a1,0
    20ce:	0b050513          	addi	a0,a0,176
    20d2:	878fe0ef          	jal	ra,14a <memset>
    20d6:	a004                	sb	s1,0(s0)
    20d8:	fd3fd06f          	j	aa <__riscv_restore_0>

000020dc <DMA_Tx_Init>:
    20dc:	fc5fd2ef          	jal	t0,a0 <__riscv_save_0>
    20e0:	fcc10113          	addi	sp,sp,-52
    20e4:	842a                	mv	s0,a0
    20e6:	c22e                	sw	a1,4(sp)
    20e8:	4505                	li	a0,1
    20ea:	4585                	li	a1,1
    20ec:	84b6                	mv	s1,a3
    20ee:	c032                	sw	a2,0(sp)
    20f0:	c402                	sw	zero,8(sp)
    20f2:	c602                	sw	zero,12(sp)
    20f4:	c802                	sw	zero,16(sp)
    20f6:	ca02                	sw	zero,20(sp)
    20f8:	cc02                	sw	zero,24(sp)
    20fa:	ce02                	sw	zero,28(sp)
    20fc:	d002                	sw	zero,32(sp)
    20fe:	d202                	sw	zero,36(sp)
    2100:	d402                	sw	zero,40(sp)
    2102:	d602                	sw	zero,44(sp)
    2104:	d802                	sw	zero,48(sp)
    2106:	7ec000ef          	jal	ra,28f2 <RCC_AHBPeriphClockCmd>
    210a:	8522                	mv	a0,s0
    210c:	268d                	jal	246e <DMA_DeInit>
    210e:	4792                	lw	a5,4(sp)
    2110:	4602                	lw	a2,0(sp)
    2112:	002c                	addi	a1,sp,8
    2114:	c43e                	sw	a5,8(sp)
    2116:	47c1                	li	a5,16
    2118:	c83e                	sw	a5,16(sp)
    211a:	08000793          	li	a5,128
    211e:	ce3e                	sw	a5,28(sp)
    2120:	8522                	mv	a0,s0
    2122:	678d                	lui	a5,0x3
    2124:	c632                	sw	a2,12(sp)
    2126:	ca26                	sw	s1,20(sp)
    2128:	d63e                	sw	a5,44(sp)
    212a:	cc02                	sw	zero,24(sp)
    212c:	d002                	sw	zero,32(sp)
    212e:	d202                	sw	zero,36(sp)
    2130:	d402                	sw	zero,40(sp)
    2132:	d802                	sw	zero,48(sp)
    2134:	26cd                	jal	2516 <DMA_Init>
    2136:	03410113          	addi	sp,sp,52
    213a:	f71fd06f          	j	aa <__riscv_restore_0>

0000213e <TIM1_CC_IRQHandler>:
    213e:	1161                	addi	sp,sp,-8
    2140:	c026                	sw	s1,0(sp)
    2142:	400134b7          	lui	s1,0x40013
    2146:	c222                	sw	s0,4(sp)
    2148:	45a1                	li	a1,8
    214a:	c0048513          	addi	a0,s1,-1024 # 40012c00 <__global_pointer$+0x200122b0>
    214e:	273000ef          	jal	ra,2bc0 <TIM_ClearFlag>
    2152:	bb218413          	addi	s0,gp,-1102 # 20000502 <ntsc_line>
    2156:	201e                	lhu	a5,0(s0)
    2158:	470d                	li	a4,3
    215a:	0785                	addi	a5,a5,1
    215c:	07c2                	slli	a5,a5,0x10
    215e:	83c1                	srli	a5,a5,0x10
    2160:	a01e                	sh	a5,0(s0)
    2162:	201e                	lhu	a5,0(s0)
    2164:	00f70a63          	beq	a4,a5,2178 <TIM1_CC_IRQHandler+0x3a>
    2168:	201e                	lhu	a5,0(s0)
    216a:	4711                	li	a4,4
    216c:	00f70663          	beq	a4,a5,2178 <TIM1_CC_IRQHandler+0x3a>
    2170:	201e                	lhu	a5,0(s0)
    2172:	4715                	li	a4,5
    2174:	04f71b63          	bne	a4,a5,21ca <TIM1_CC_IRQHandler+0x8c>
    2178:	6585                	lui	a1,0x1
    217a:	40013537          	lui	a0,0x40013
    217e:	b0958593          	addi	a1,a1,-1271 # b09 <toktoi+0x26b>
    2182:	c0050513          	addi	a0,a0,-1024 # 40012c00 <__global_pointer$+0x200122b0>
    2186:	237000ef          	jal	ra,2bbc <TIM_SetCompare4>
    218a:	201e                	lhu	a5,0(s0)
    218c:	02700713          	li	a4,39
    2190:	00f77763          	bgeu	a4,a5,219e <TIM1_CC_IRQHandler+0x60>
    2194:	201e                	lhu	a5,0(s0)
    2196:	0e700713          	li	a4,231
    219a:	0af77963          	bgeu	a4,a5,224c <TIM1_CC_IRQHandler+0x10e>
    219e:	201e                	lhu	a5,0(s0)
    21a0:	02600713          	li	a4,38
    21a4:	00f77763          	bgeu	a4,a5,21b2 <TIM1_CC_IRQHandler+0x74>
    21a8:	201e                	lhu	a5,0(s0)
    21aa:	0e600713          	li	a4,230
    21ae:	02f77563          	bgeu	a4,a5,21d8 <TIM1_CC_IRQHandler+0x9a>
    21b2:	201e                	lhu	a5,0(s0)
    21b4:	10600713          	li	a4,262
    21b8:	00f77463          	bgeu	a4,a5,21c0 <TIM1_CC_IRQHandler+0x82>
    21bc:	00041023          	sh	zero,0(s0)
    21c0:	4412                	lw	s0,4(sp)
    21c2:	4482                	lw	s1,0(sp)
    21c4:	0121                	addi	sp,sp,8
    21c6:	30200073          	mret
    21ca:	0e100593          	li	a1,225
    21ce:	c0048513          	addi	a0,s1,-1024
    21d2:	1eb000ef          	jal	ra,2bbc <TIM_SetCompare4>
    21d6:	bf55                	j	218a <TIM1_CC_IRQHandler+0x4c>
    21d8:	2012                	lhu	a2,0(s0)
    21da:	201e                	lhu	a5,0(s0)
    21dc:	fd960513          	addi	a0,a2,-39
    21e0:	fd978793          	addi	a5,a5,-39 # 2fd9 <PS2Keymap_Japanese+0x99>
    21e4:	41f7d693          	srai	a3,a5,0x1f
    21e8:	01c6d713          	srli	a4,a3,0x1c
    21ec:	41f55613          	srai	a2,a0,0x1f
    21f0:	00e786b3          	add	a3,a5,a4
    21f4:	8a3d                	andi	a2,a2,15
    21f6:	962a                	add	a2,a2,a0
    21f8:	8abd                	andi	a3,a3,15
    21fa:	8e99                	sub	a3,a3,a4
    21fc:	8611                	srai	a2,a2,0x4
    21fe:	0ff6f693          	andi	a3,a3,255
    2202:	0ff67613          	andi	a2,a2,255
    2206:	650d                	lui	a0,0x3
    2208:	0612                	slli	a2,a2,0x4
    220a:	8285                	srli	a3,a3,0x1
    220c:	4701                	li	a4,0
    220e:	bb418593          	addi	a1,gp,-1100 # 20000504 <scandata>
    2212:	bbc18313          	addi	t1,gp,-1092 # 2000050c <vram>
    2216:	4dc50513          	addi	a0,a0,1244 # 34dc <msxfont>
    221a:	42c1                	li	t0,16
    221c:	00032383          	lw	t2,0(t1)
    2220:	201e                	lhu	a5,0(s0)
    2222:	93b2                	add	t2,t2,a2
    2224:	93ba                	add	t2,t2,a4
    2226:	0003c383          	lbu	t2,0(t2)
    222a:	0785                	addi	a5,a5,1
    222c:	8b85                	andi	a5,a5,1
    222e:	078a                	slli	a5,a5,0x2
    2230:	038e                	slli	t2,t2,0x3
    2232:	97ae                	add	a5,a5,a1
    2234:	93aa                	add	t2,t2,a0
    2236:	439c                	lw	a5,0(a5)
    2238:	93b6                	add	t2,t2,a3
    223a:	0003c383          	lbu	t2,0(t2)
    223e:	97ba                	add	a5,a5,a4
    2240:	0705                	addi	a4,a4,1
    2242:	00778023          	sb	t2,0(a5)
    2246:	fc571be3          	bne	a4,t0,221c <TIM1_CC_IRQHandler+0xde>
    224a:	b7a5                	j	21b2 <TIM1_CC_IRQHandler+0x74>
    224c:	201e                	lhu	a5,0(s0)
    224e:	bb418593          	addi	a1,gp,-1100 # 20000504 <scandata>
    2252:	8b85                	andi	a5,a5,1
    2254:	078a                	slli	a5,a5,0x2
    2256:	95be                	add	a1,a1,a5
    2258:	4190                	lw	a2,0(a1)
    225a:	400204b7          	lui	s1,0x40020
    225e:	400135b7          	lui	a1,0x40013
    2262:	03048513          	addi	a0,s1,48 # 40020030 <__global_pointer$+0x2001f6e0>
    2266:	05b9                	addi	a1,a1,14
    2268:	46c5                	li	a3,17
    226a:	e73ff0ef          	jal	ra,20dc <DMA_Tx_Init>
    226e:	4585                	li	a1,1
    2270:	03048513          	addi	a0,s1,48
    2274:	24dd                	jal	255a <DMA_Cmd>
    2276:	b725                	j	219e <TIM1_CC_IRQHandler+0x60>

00002278 <main>:
    2278:	e29fd2ef          	jal	t0,a0 <__riscv_save_0>
    227c:	e000f7b7          	lui	a5,0xe000f
    2280:	0007a423          	sw	zero,8(a5) # e000f008 <__global_pointer$+0xc000e6b8>
    2284:	4398                	lw	a4,0(a5)
    2286:	4509                	li	a0,2
    2288:	00176713          	ori	a4,a4,1
    228c:	c398                	sw	a4,0(a5)
    228e:	2369                	jal	2818 <NVIC_PriorityGroupConfig>
    2290:	bffff0ef          	jal	ra,1e8e <video_init>
    2294:	bbc1a503          	lw	a0,-1092(gp) # 2000050c <vram>
    2298:	0c000613          	li	a2,192
    229c:	4581                	li	a1,0
    229e:	eadfd0ef          	jal	ra,14a <memset>
    22a2:	abcfe0ef          	jal	ra,55e <kbd_init>
    22a6:	b03ff0ef          	jal	ra,1da8 <basic>
    22aa:	bff5                	j	22a6 <main+0x2e>

000022ac <SystemInit>:
    22ac:	400217b7          	lui	a5,0x40021
    22b0:	4398                	lw	a4,0(a5)
    22b2:	fcff06b7          	lui	a3,0xfcff0
    22b6:	1161                	addi	sp,sp,-8
    22b8:	00176713          	ori	a4,a4,1
    22bc:	c398                	sw	a4,0(a5)
    22be:	43d8                	lw	a4,4(a5)
    22c0:	40010637          	lui	a2,0x40010
    22c4:	6321                	lui	t1,0x8
    22c6:	8f75                	and	a4,a4,a3
    22c8:	c3d8                	sw	a4,4(a5)
    22ca:	4398                	lw	a4,0(a5)
    22cc:	fef706b7          	lui	a3,0xfef70
    22d0:	16fd                	addi	a3,a3,-1
    22d2:	8f75                	and	a4,a4,a3
    22d4:	c398                	sw	a4,0(a5)
    22d6:	4398                	lw	a4,0(a5)
    22d8:	fffc06b7          	lui	a3,0xfffc0
    22dc:	16fd                	addi	a3,a3,-1
    22de:	8f75                	and	a4,a4,a3
    22e0:	c398                	sw	a4,0(a5)
    22e2:	43d8                	lw	a4,4(a5)
    22e4:	76c1                	lui	a3,0xffff0
    22e6:	16fd                	addi	a3,a3,-1
    22e8:	8f75                	and	a4,a4,a3
    22ea:	c3d8                	sw	a4,4(a5)
    22ec:	009f0737          	lui	a4,0x9f0
    22f0:	c798                	sw	a4,8(a5)
    22f2:	c002                	sw	zero,0(sp)
    22f4:	c202                	sw	zero,4(sp)
    22f6:	4f98                	lw	a4,24(a5)
    22f8:	400216b7          	lui	a3,0x40021
    22fc:	00020537          	lui	a0,0x20
    2300:	00176713          	ori	a4,a4,1
    2304:	cf98                	sw	a4,24(a5)
    2306:	4258                	lw	a4,4(a2)
    2308:	6589                	lui	a1,0x2
    230a:	00676733          	or	a4,a4,t1
    230e:	c258                	sw	a4,4(a2)
    2310:	4398                	lw	a4,0(a5)
    2312:	6641                	lui	a2,0x10
    2314:	8f51                	or	a4,a4,a2
    2316:	c398                	sw	a4,0(a5)
    2318:	a021                	j	2320 <SystemInit+0x74>
    231a:	4782                	lw	a5,0(sp)
    231c:	00b78a63          	beq	a5,a1,2330 <SystemInit+0x84>
    2320:	429c                	lw	a5,0(a3)
    2322:	8fe9                	and	a5,a5,a0
    2324:	c23e                	sw	a5,4(sp)
    2326:	4782                	lw	a5,0(sp)
    2328:	0785                	addi	a5,a5,1
    232a:	c03e                	sw	a5,0(sp)
    232c:	4792                	lw	a5,4(sp)
    232e:	d7f5                	beqz	a5,231a <SystemInit+0x6e>
    2330:	400217b7          	lui	a5,0x40021
    2334:	439c                	lw	a5,0(a5)
    2336:	00e79713          	slli	a4,a5,0xe
    233a:	00075a63          	bgez	a4,234e <SystemInit+0xa2>
    233e:	4785                	li	a5,1
    2340:	c23e                	sw	a5,4(sp)
    2342:	4712                	lw	a4,4(sp)
    2344:	4785                	li	a5,1
    2346:	00f70963          	beq	a4,a5,2358 <SystemInit+0xac>
    234a:	0121                	addi	sp,sp,8
    234c:	8082                	ret
    234e:	c202                	sw	zero,4(sp)
    2350:	4712                	lw	a4,4(sp)
    2352:	4785                	li	a5,1
    2354:	fef71be3          	bne	a4,a5,234a <SystemInit+0x9e>
    2358:	40022737          	lui	a4,0x40022
    235c:	4314                	lw	a3,0(a4)
    235e:	400217b7          	lui	a5,0x40021
    2362:	7641                	lui	a2,0xffff0
    2364:	9af1                	andi	a3,a3,-4
    2366:	c314                	sw	a3,0(a4)
    2368:	4314                	lw	a3,0(a4)
    236a:	167d                	addi	a2,a2,-1
    236c:	0016e693          	ori	a3,a3,1
    2370:	c314                	sw	a3,0(a4)
    2372:	43d4                	lw	a3,4(a5)
    2374:	40021737          	lui	a4,0x40021
    2378:	c3d4                	sw	a3,4(a5)
    237a:	43d4                	lw	a3,4(a5)
    237c:	8ef1                	and	a3,a3,a2
    237e:	c3d4                	sw	a3,4(a5)
    2380:	43d4                	lw	a3,4(a5)
    2382:	6641                	lui	a2,0x10
    2384:	8ed1                	or	a3,a3,a2
    2386:	c3d4                	sw	a3,4(a5)
    2388:	4394                	lw	a3,0(a5)
    238a:	01000637          	lui	a2,0x1000
    238e:	8ed1                	or	a3,a3,a2
    2390:	c394                	sw	a3,0(a5)
    2392:	431c                	lw	a5,0(a4)
    2394:	00679693          	slli	a3,a5,0x6
    2398:	fe06dde3          	bgez	a3,2392 <SystemInit+0xe6>
    239c:	435c                	lw	a5,4(a4)
    239e:	40021637          	lui	a2,0x40021
    23a2:	46a1                	li	a3,8
    23a4:	9bf1                	andi	a5,a5,-4
    23a6:	c35c                	sw	a5,4(a4)
    23a8:	435c                	lw	a5,4(a4)
    23aa:	0027e793          	ori	a5,a5,2
    23ae:	c35c                	sw	a5,4(a4)
    23b0:	425c                	lw	a5,4(a2)
    23b2:	8bb1                	andi	a5,a5,12
    23b4:	fed79ee3          	bne	a5,a3,23b0 <SystemInit+0x104>
    23b8:	0121                	addi	sp,sp,8
    23ba:	8082                	ret
    23bc:	a001                	j	23bc <SystemInit+0x110>
    23be:	a001                	j	23be <SystemInit+0x112>

000023c0 <SysTick_Handler>:
    23c0:	a001                	j	23c0 <SysTick_Handler>

000023c2 <SW_Handler>:
    23c2:	a001                	j	23c2 <SW_Handler>

000023c4 <WWDG_IRQHandler>:
    23c4:	a001                	j	23c4 <WWDG_IRQHandler>

000023c6 <PVD_IRQHandler>:
    23c6:	a001                	j	23c6 <PVD_IRQHandler>

000023c8 <FLASH_IRQHandler>:
    23c8:	a001                	j	23c8 <FLASH_IRQHandler>

000023ca <RCC_IRQHandler>:
    23ca:	a001                	j	23ca <RCC_IRQHandler>
    23cc:	a001                	j	23cc <RCC_IRQHandler+0x2>

000023ce <AWU_IRQHandler>:
    23ce:	a001                	j	23ce <AWU_IRQHandler>

000023d0 <DMA1_Channel1_IRQHandler>:
    23d0:	a001                	j	23d0 <DMA1_Channel1_IRQHandler>

000023d2 <DMA1_Channel2_IRQHandler>:
    23d2:	a001                	j	23d2 <DMA1_Channel2_IRQHandler>

000023d4 <DMA1_Channel3_IRQHandler>:
    23d4:	a001                	j	23d4 <DMA1_Channel3_IRQHandler>

000023d6 <DMA1_Channel4_IRQHandler>:
    23d6:	a001                	j	23d6 <DMA1_Channel4_IRQHandler>

000023d8 <DMA1_Channel5_IRQHandler>:
    23d8:	a001                	j	23d8 <DMA1_Channel5_IRQHandler>

000023da <DMA1_Channel6_IRQHandler>:
    23da:	a001                	j	23da <DMA1_Channel6_IRQHandler>

000023dc <DMA1_Channel7_IRQHandler>:
    23dc:	a001                	j	23dc <DMA1_Channel7_IRQHandler>

000023de <ADC1_IRQHandler>:
    23de:	a001                	j	23de <ADC1_IRQHandler>

000023e0 <I2C1_EV_IRQHandler>:
    23e0:	a001                	j	23e0 <I2C1_EV_IRQHandler>

000023e2 <I2C1_ER_IRQHandler>:
    23e2:	a001                	j	23e2 <I2C1_ER_IRQHandler>

000023e4 <USART1_IRQHandler>:
    23e4:	a001                	j	23e4 <USART1_IRQHandler>

000023e6 <SPI1_IRQHandler>:
    23e6:	a001                	j	23e6 <SPI1_IRQHandler>

000023e8 <TIM1_BRK_IRQHandler>:
    23e8:	a001                	j	23e8 <TIM1_BRK_IRQHandler>

000023ea <TIM1_UP_IRQHandler>:
    23ea:	a001                	j	23ea <TIM1_UP_IRQHandler>

000023ec <TIM1_TRG_COM_IRQHandler>:
    23ec:	a001                	j	23ec <TIM1_TRG_COM_IRQHandler>
    23ee:	a001                	j	23ee <TIM1_TRG_COM_IRQHandler+0x2>

000023f0 <TIM2_IRQHandler>:
    23f0:	a001                	j	23f0 <TIM2_IRQHandler>

000023f2 <handle_reset>:
    23f2:	1fffe197          	auipc	gp,0x1fffe
    23f6:	55e18193          	addi	gp,gp,1374 # 20000950 <__global_pointer$>
    23fa:	eb018113          	addi	sp,gp,-336 # 20000800 <_eusrstack>
    23fe:	00002517          	auipc	a0,0x2
    2402:	8ea50513          	addi	a0,a0,-1814 # 3ce8 <_data_lma>
    2406:	1fffe597          	auipc	a1,0x1fffe
    240a:	bfa58593          	addi	a1,a1,-1030 # 20000000 <_data_vma>
    240e:	80818613          	addi	a2,gp,-2040 # 20000158 <_edata>
    2412:	00c5fa63          	bgeu	a1,a2,2426 <handle_reset+0x34>
    2416:	00052283          	lw	t0,0(a0)
    241a:	0055a023          	sw	t0,0(a1)
    241e:	0511                	addi	a0,a0,4
    2420:	0591                	addi	a1,a1,4
    2422:	fec5eae3          	bltu	a1,a2,2416 <handle_reset+0x24>
    2426:	80818513          	addi	a0,gp,-2040 # 20000158 <_edata>
    242a:	bc818593          	addi	a1,gp,-1080 # 20000518 <_ebss>
    242e:	00b57763          	bgeu	a0,a1,243c <handle_reset+0x4a>
    2432:	00052023          	sw	zero,0(a0)
    2436:	0511                	addi	a0,a0,4
    2438:	feb56de3          	bltu	a0,a1,2432 <handle_reset+0x40>
    243c:	08000293          	li	t0,128
    2440:	30029073          	csrw	mstatus,t0
    2444:	428d                	li	t0,3
    2446:	80429073          	csrw	0x804,t0
    244a:	ffffe297          	auipc	t0,0xffffe
    244e:	bb628293          	addi	t0,t0,-1098 # 0 <_sinit>
    2452:	0032e293          	ori	t0,t0,3
    2456:	30529073          	csrw	mtvec,t0
    245a:	e53ff0ef          	jal	ra,22ac <SystemInit>
    245e:	00000297          	auipc	t0,0x0
    2462:	e1a28293          	addi	t0,t0,-486 # 2278 <main>
    2466:	34129073          	csrw	mepc,t0
    246a:	30200073          	mret

0000246e <DMA_DeInit>:
    246e:	411c                	lw	a5,0(a0)
    2470:	6741                	lui	a4,0x10
    2472:	1779                	addi	a4,a4,-2
    2474:	8ff9                	and	a5,a5,a4
    2476:	c11c                	sw	a5,0(a0)
    2478:	00052023          	sw	zero,0(a0)
    247c:	00052223          	sw	zero,4(a0)
    2480:	00052423          	sw	zero,8(a0)
    2484:	400207b7          	lui	a5,0x40020
    2488:	00052623          	sw	zero,12(a0)
    248c:	00878713          	addi	a4,a5,8 # 40020008 <__global_pointer$+0x2001f6b8>
    2490:	04e50063          	beq	a0,a4,24d0 <DMA_DeInit+0x62>
    2494:	01c78713          	addi	a4,a5,28
    2498:	02e50763          	beq	a0,a4,24c6 <DMA_DeInit+0x58>
    249c:	03078713          	addi	a4,a5,48
    24a0:	04e50363          	beq	a0,a4,24e6 <DMA_DeInit+0x78>
    24a4:	04478713          	addi	a4,a5,68
    24a8:	04e50663          	beq	a0,a4,24f4 <DMA_DeInit+0x86>
    24ac:	05878713          	addi	a4,a5,88
    24b0:	02e50563          	beq	a0,a4,24da <DMA_DeInit+0x6c>
    24b4:	06c78713          	addi	a4,a5,108
    24b8:	04e50363          	beq	a0,a4,24fe <DMA_DeInit+0x90>
    24bc:	08078713          	addi	a4,a5,128
    24c0:	04e50563          	beq	a0,a4,250a <DMA_DeInit+0x9c>
    24c4:	8082                	ret
    24c6:	43d8                	lw	a4,4(a5)
    24c8:	0f076713          	ori	a4,a4,240
    24cc:	c3d8                	sw	a4,4(a5)
    24ce:	8082                	ret
    24d0:	43d8                	lw	a4,4(a5)
    24d2:	00f76713          	ori	a4,a4,15
    24d6:	c3d8                	sw	a4,4(a5)
    24d8:	8082                	ret
    24da:	43d8                	lw	a4,4(a5)
    24dc:	000f06b7          	lui	a3,0xf0
    24e0:	8f55                	or	a4,a4,a3
    24e2:	c3d8                	sw	a4,4(a5)
    24e4:	8082                	ret
    24e6:	43d8                	lw	a4,4(a5)
    24e8:	6685                	lui	a3,0x1
    24ea:	f0068693          	addi	a3,a3,-256 # f00 <putlist+0x11a>
    24ee:	8f55                	or	a4,a4,a3
    24f0:	c3d8                	sw	a4,4(a5)
    24f2:	8082                	ret
    24f4:	43d8                	lw	a4,4(a5)
    24f6:	66bd                	lui	a3,0xf
    24f8:	8f55                	or	a4,a4,a3
    24fa:	c3d8                	sw	a4,4(a5)
    24fc:	8082                	ret
    24fe:	43d8                	lw	a4,4(a5)
    2500:	00f006b7          	lui	a3,0xf00
    2504:	8f55                	or	a4,a4,a3
    2506:	c3d8                	sw	a4,4(a5)
    2508:	8082                	ret
    250a:	43d8                	lw	a4,4(a5)
    250c:	0f0006b7          	lui	a3,0xf000
    2510:	8f55                	or	a4,a4,a3
    2512:	c3d8                	sw	a4,4(a5)
    2514:	8082                	ret

00002516 <DMA_Init>:
    2516:	5194                	lw	a3,32(a1)
    2518:	459c                	lw	a5,8(a1)
    251a:	4990                	lw	a2,16(a1)
    251c:	49d8                	lw	a4,20(a1)
    251e:	0185a303          	lw	t1,24(a1)
    2522:	8fd5                	or	a5,a5,a3
    2524:	8fd1                	or	a5,a5,a2
    2526:	4dd4                	lw	a3,28(a1)
    2528:	0245a283          	lw	t0,36(a1)
    252c:	8fd9                	or	a5,a5,a4
    252e:	5590                	lw	a2,40(a1)
    2530:	4118                	lw	a4,0(a0)
    2532:	0067e7b3          	or	a5,a5,t1
    2536:	8fd5                	or	a5,a5,a3
    2538:	76e1                	lui	a3,0xffff8
    253a:	06bd                	addi	a3,a3,15
    253c:	0057e7b3          	or	a5,a5,t0
    2540:	00c5a303          	lw	t1,12(a1)
    2544:	8f75                	and	a4,a4,a3
    2546:	8fd1                	or	a5,a5,a2
    2548:	4194                	lw	a3,0(a1)
    254a:	8fd9                	or	a5,a5,a4
    254c:	c11c                	sw	a5,0(a0)
    254e:	41dc                	lw	a5,4(a1)
    2550:	00652223          	sw	t1,4(a0)
    2554:	c514                	sw	a3,8(a0)
    2556:	c55c                	sw	a5,12(a0)
    2558:	8082                	ret

0000255a <DMA_Cmd>:
    255a:	411c                	lw	a5,0(a0)
    255c:	c589                	beqz	a1,2566 <DMA_Cmd+0xc>
    255e:	0017e793          	ori	a5,a5,1
    2562:	c11c                	sw	a5,0(a0)
    2564:	8082                	ret
    2566:	6741                	lui	a4,0x10
    2568:	1779                	addi	a4,a4,-2
    256a:	8ff9                	and	a5,a5,a4
    256c:	c11c                	sw	a5,0(a0)
    256e:	8082                	ret

00002570 <EXTI_Init>:
    2570:	4158                	lw	a4,4(a0)
    2572:	410c                	lw	a1,0(a0)
    2574:	00c52303          	lw	t1,12(a0)
    2578:	400106b7          	lui	a3,0x40010
    257c:	40068793          	addi	a5,a3,1024 # 40010400 <__global_pointer$+0x2000fab0>
    2580:	973e                	add	a4,a4,a5
    2582:	fff5c613          	not	a2,a1
    2586:	04030163          	beqz	t1,25c8 <EXTI_Init+0x58>
    258a:	4006a383          	lw	t2,1024(a3)
    258e:	00852303          	lw	t1,8(a0)
    2592:	42c1                	li	t0,16
    2594:	00c3f3b3          	and	t2,t2,a2
    2598:	4076a023          	sw	t2,1024(a3)
    259c:	43d4                	lw	a3,4(a5)
    259e:	8e75                	and	a2,a2,a3
    25a0:	c3d0                	sw	a2,4(a5)
    25a2:	4314                	lw	a3,0(a4)
    25a4:	8dd5                	or	a1,a1,a3
    25a6:	c30c                	sw	a1,0(a4)
    25a8:	4114                	lw	a3,0(a0)
    25aa:	4790                	lw	a2,8(a5)
    25ac:	fff6c713          	not	a4,a3
    25b0:	8e79                	and	a2,a2,a4
    25b2:	c790                	sw	a2,8(a5)
    25b4:	47d0                	lw	a2,12(a5)
    25b6:	8f71                	and	a4,a4,a2
    25b8:	c7d8                	sw	a4,12(a5)
    25ba:	00530b63          	beq	t1,t0,25d0 <EXTI_Init+0x60>
    25be:	979a                	add	a5,a5,t1
    25c0:	4398                	lw	a4,0(a5)
    25c2:	8ed9                	or	a3,a3,a4
    25c4:	c394                	sw	a3,0(a5)
    25c6:	8082                	ret
    25c8:	431c                	lw	a5,0(a4)
    25ca:	8e7d                	and	a2,a2,a5
    25cc:	c310                	sw	a2,0(a4)
    25ce:	8082                	ret
    25d0:	4798                	lw	a4,8(a5)
    25d2:	8f55                	or	a4,a4,a3
    25d4:	c798                	sw	a4,8(a5)
    25d6:	47d8                	lw	a4,12(a5)
    25d8:	8ed9                	or	a3,a3,a4
    25da:	c7d4                	sw	a3,12(a5)
    25dc:	8082                	ret

000025de <EXTI_GetITStatus>:
    25de:	400107b7          	lui	a5,0x40010
    25e2:	40078713          	addi	a4,a5,1024 # 40010400 <__global_pointer$+0x2000fab0>
    25e6:	4007a783          	lw	a5,1024(a5)
    25ea:	4b58                	lw	a4,20(a4)
    25ec:	8f69                	and	a4,a4,a0
    25ee:	c709                	beqz	a4,25f8 <EXTI_GetITStatus+0x1a>
    25f0:	8d7d                	and	a0,a0,a5
    25f2:	00a03533          	snez	a0,a0
    25f6:	8082                	ret
    25f8:	4501                	li	a0,0
    25fa:	8082                	ret

000025fc <EXTI_ClearITPendingBit>:
    25fc:	400107b7          	lui	a5,0x40010
    2600:	40a7aa23          	sw	a0,1044(a5) # 40010414 <__global_pointer$+0x2000fac4>
    2604:	8082                	ret

00002606 <FLASH_Lock>:
    2606:	40022737          	lui	a4,0x40022
    260a:	4b1c                	lw	a5,16(a4)
    260c:	0807e793          	ori	a5,a5,128
    2610:	cb1c                	sw	a5,16(a4)
    2612:	8082                	ret

00002614 <FLASH_Unlock_Fast>:
    2614:	456706b7          	lui	a3,0x45670
    2618:	400227b7          	lui	a5,0x40022
    261c:	12368693          	addi	a3,a3,291 # 45670123 <__global_pointer$+0x2566f7d3>
    2620:	cdef9737          	lui	a4,0xcdef9
    2624:	c3d4                	sw	a3,4(a5)
    2626:	9ab70713          	addi	a4,a4,-1621 # cdef89ab <__global_pointer$+0xadef805b>
    262a:	c3d8                	sw	a4,4(a5)
    262c:	d3d4                	sw	a3,36(a5)
    262e:	d3d8                	sw	a4,36(a5)
    2630:	8082                	ret

00002632 <FLASH_Lock_Fast>:
    2632:	a6ffd2ef          	jal	t0,a0 <__riscv_save_0>
    2636:	3fc1                	jal	2606 <FLASH_Lock>
    2638:	a73fd06f          	j	aa <__riscv_restore_0>

0000263c <FLASH_BufReset>:
    263c:	400227b7          	lui	a5,0x40022
    2640:	4b98                	lw	a4,16(a5)
    2642:	66c1                	lui	a3,0x10
    2644:	00080637          	lui	a2,0x80
    2648:	8f55                	or	a4,a4,a3
    264a:	cb98                	sw	a4,16(a5)
    264c:	4b94                	lw	a3,16(a5)
    264e:	40022737          	lui	a4,0x40022
    2652:	8ed1                	or	a3,a3,a2
    2654:	cb94                	sw	a3,16(a5)
    2656:	475c                	lw	a5,12(a4)
    2658:	8b85                	andi	a5,a5,1
    265a:	fff5                	bnez	a5,2656 <FLASH_BufReset+0x1a>
    265c:	4b1c                	lw	a5,16(a4)
    265e:	76c1                	lui	a3,0xffff0
    2660:	16fd                	addi	a3,a3,-1
    2662:	8ff5                	and	a5,a5,a3
    2664:	cb1c                	sw	a5,16(a4)
    2666:	8082                	ret

00002668 <FLASH_BufLoad>:
    2668:	f80007b7          	lui	a5,0xf8000
    266c:	97aa                	add	a5,a5,a0
    266e:	6711                	lui	a4,0x4
    2670:	02e7f863          	bgeu	a5,a4,26a0 <FLASH_BufLoad+0x38>
    2674:	400227b7          	lui	a5,0x40022
    2678:	4b98                	lw	a4,16(a5)
    267a:	66c1                	lui	a3,0x10
    267c:	00040637          	lui	a2,0x40
    2680:	8f55                	or	a4,a4,a3
    2682:	cb98                	sw	a4,16(a5)
    2684:	c10c                	sw	a1,0(a0)
    2686:	4b94                	lw	a3,16(a5)
    2688:	40022737          	lui	a4,0x40022
    268c:	8ed1                	or	a3,a3,a2
    268e:	cb94                	sw	a3,16(a5)
    2690:	475c                	lw	a5,12(a4)
    2692:	8b85                	andi	a5,a5,1
    2694:	fff5                	bnez	a5,2690 <FLASH_BufLoad+0x28>
    2696:	4b1c                	lw	a5,16(a4)
    2698:	76c1                	lui	a3,0xffff0
    269a:	16fd                	addi	a3,a3,-1
    269c:	8ff5                	and	a5,a5,a3
    269e:	cb1c                	sw	a5,16(a4)
    26a0:	8082                	ret

000026a2 <FLASH_ErasePage_Fast>:
    26a2:	f80007b7          	lui	a5,0xf8000
    26a6:	97aa                	add	a5,a5,a0
    26a8:	6711                	lui	a4,0x4
    26aa:	02e7f863          	bgeu	a5,a4,26da <FLASH_ErasePage_Fast+0x38>
    26ae:	400227b7          	lui	a5,0x40022
    26b2:	4b94                	lw	a3,16(a5)
    26b4:	00020637          	lui	a2,0x20
    26b8:	40022737          	lui	a4,0x40022
    26bc:	8ed1                	or	a3,a3,a2
    26be:	cb94                	sw	a3,16(a5)
    26c0:	cbc8                	sw	a0,20(a5)
    26c2:	4b94                	lw	a3,16(a5)
    26c4:	0406e693          	ori	a3,a3,64
    26c8:	cb94                	sw	a3,16(a5)
    26ca:	475c                	lw	a5,12(a4)
    26cc:	8b85                	andi	a5,a5,1
    26ce:	fff5                	bnez	a5,26ca <FLASH_ErasePage_Fast+0x28>
    26d0:	4b1c                	lw	a5,16(a4)
    26d2:	7681                	lui	a3,0xfffe0
    26d4:	16fd                	addi	a3,a3,-1
    26d6:	8ff5                	and	a5,a5,a3
    26d8:	cb1c                	sw	a5,16(a4)
    26da:	8082                	ret

000026dc <FLASH_ProgramPage_Fast>:
    26dc:	f80007b7          	lui	a5,0xf8000
    26e0:	97aa                	add	a5,a5,a0
    26e2:	6711                	lui	a4,0x4
    26e4:	02e7f763          	bgeu	a5,a4,2712 <FLASH_ProgramPage_Fast+0x36>
    26e8:	400227b7          	lui	a5,0x40022
    26ec:	4b94                	lw	a3,16(a5)
    26ee:	6641                	lui	a2,0x10
    26f0:	40022737          	lui	a4,0x40022
    26f4:	8ed1                	or	a3,a3,a2
    26f6:	cb94                	sw	a3,16(a5)
    26f8:	cbc8                	sw	a0,20(a5)
    26fa:	4b94                	lw	a3,16(a5)
    26fc:	0406e693          	ori	a3,a3,64
    2700:	cb94                	sw	a3,16(a5)
    2702:	475c                	lw	a5,12(a4)
    2704:	8b85                	andi	a5,a5,1
    2706:	fff5                	bnez	a5,2702 <FLASH_ProgramPage_Fast+0x26>
    2708:	4b1c                	lw	a5,16(a4)
    270a:	76c1                	lui	a3,0xffff0
    270c:	16fd                	addi	a3,a3,-1
    270e:	8ff5                	and	a5,a5,a3
    2710:	cb1c                	sw	a5,16(a4)
    2712:	8082                	ret

00002714 <GPIO_Init>:
    2714:	0085a303          	lw	t1,8(a1)
    2718:	1161                	addi	sp,sp,-8
    271a:	c222                	sw	s0,4(sp)
    271c:	c026                	sw	s1,0(sp)
    271e:	01037793          	andi	a5,t1,16
    2722:	00f37393          	andi	t2,t1,15
    2726:	c781                	beqz	a5,272e <GPIO_Init+0x1a>
    2728:	41dc                	lw	a5,4(a1)
    272a:	00f3e3b3          	or	t2,t2,a5
    272e:	2192                	lhu	a2,0(a1)
    2730:	0ff67793          	andi	a5,a2,255
    2734:	cba1                	beqz	a5,2784 <GPIO_Init+0x70>
    2736:	4114                	lw	a3,0(a0)
    2738:	4781                	li	a5,0
    273a:	4485                	li	s1,1
    273c:	4421                	li	s0,8
    273e:	a021                	j	2746 <GPIO_Init+0x32>
    2740:	0785                	addi	a5,a5,1
    2742:	04878063          	beq	a5,s0,2782 <GPIO_Init+0x6e>
    2746:	00f49733          	sll	a4,s1,a5
    274a:	00e675b3          	and	a1,a2,a4
    274e:	feb719e3          	bne	a4,a1,2740 <GPIO_Init+0x2c>
    2752:	00279293          	slli	t0,a5,0x2
    2756:	45bd                	li	a1,15
    2758:	005595b3          	sll	a1,a1,t0
    275c:	fff5c593          	not	a1,a1
    2760:	8eed                	and	a3,a3,a1
    2762:	005392b3          	sll	t0,t2,t0
    2766:	02800593          	li	a1,40
    276a:	00d2e6b3          	or	a3,t0,a3
    276e:	06b30b63          	beq	t1,a1,27e4 <GPIO_Init+0xd0>
    2772:	04800593          	li	a1,72
    2776:	fcb315e3          	bne	t1,a1,2740 <GPIO_Init+0x2c>
    277a:	c918                	sw	a4,16(a0)
    277c:	0785                	addi	a5,a5,1
    277e:	fc8794e3          	bne	a5,s0,2746 <GPIO_Init+0x32>
    2782:	c114                	sw	a3,0(a0)
    2784:	0ff00793          	li	a5,255
    2788:	04c7fa63          	bgeu	a5,a2,27dc <GPIO_Init+0xc8>
    278c:	4154                	lw	a3,4(a0)
    278e:	47a1                	li	a5,8
    2790:	4485                	li	s1,1
    2792:	4441                	li	s0,16
    2794:	a021                	j	279c <GPIO_Init+0x88>
    2796:	0785                	addi	a5,a5,1
    2798:	04878163          	beq	a5,s0,27da <GPIO_Init+0xc6>
    279c:	00f49733          	sll	a4,s1,a5
    27a0:	00e675b3          	and	a1,a2,a4
    27a4:	feb719e3          	bne	a4,a1,2796 <GPIO_Init+0x82>
    27a8:	00279593          	slli	a1,a5,0x2
    27ac:	1581                	addi	a1,a1,-32
    27ae:	42bd                	li	t0,15
    27b0:	00b292b3          	sll	t0,t0,a1
    27b4:	fff2c293          	not	t0,t0
    27b8:	00b395b3          	sll	a1,t2,a1
    27bc:	00d2f6b3          	and	a3,t0,a3
    27c0:	8ecd                	or	a3,a3,a1
    27c2:	02800593          	li	a1,40
    27c6:	02b30163          	beq	t1,a1,27e8 <GPIO_Init+0xd4>
    27ca:	04800593          	li	a1,72
    27ce:	fcb314e3          	bne	t1,a1,2796 <GPIO_Init+0x82>
    27d2:	c918                	sw	a4,16(a0)
    27d4:	0785                	addi	a5,a5,1
    27d6:	fc8793e3          	bne	a5,s0,279c <GPIO_Init+0x88>
    27da:	c154                	sw	a3,4(a0)
    27dc:	4412                	lw	s0,4(sp)
    27de:	4482                	lw	s1,0(sp)
    27e0:	0121                	addi	sp,sp,8
    27e2:	8082                	ret
    27e4:	c958                	sw	a4,20(a0)
    27e6:	bfa9                	j	2740 <GPIO_Init+0x2c>
    27e8:	c958                	sw	a4,20(a0)
    27ea:	b775                	j	2796 <GPIO_Init+0x82>

000027ec <GPIO_ReadInputDataBit>:
    27ec:	4508                	lw	a0,8(a0)
    27ee:	8d6d                	and	a0,a0,a1
    27f0:	00a03533          	snez	a0,a0
    27f4:	8082                	ret

000027f6 <GPIO_EXTILineConfig>:
    27f6:	40010737          	lui	a4,0x40010
    27fa:	4714                	lw	a3,8(a4)
    27fc:	0586                	slli	a1,a1,0x1
    27fe:	478d                	li	a5,3
    2800:	00b797b3          	sll	a5,a5,a1
    2804:	fff7c793          	not	a5,a5
    2808:	8ff5                	and	a5,a5,a3
    280a:	c71c                	sw	a5,8(a4)
    280c:	471c                	lw	a5,8(a4)
    280e:	00b515b3          	sll	a1,a0,a1
    2812:	8ddd                	or	a1,a1,a5
    2814:	c70c                	sw	a1,8(a4)
    2816:	8082                	ret

00002818 <NVIC_PriorityGroupConfig>:
    2818:	bca1a023          	sw	a0,-1088(gp) # 20000510 <NVIC_Priority_Group>
    281c:	8082                	ret

0000281e <NVIC_Init>:
    281e:	bc018793          	addi	a5,gp,-1088 # 20000510 <NVIC_Priority_Group>
    2822:	4398                	lw	a4,0(a5)
    2824:	2114                	lbu	a3,0(a0)
    2826:	e329                	bnez	a4,2868 <NVIC_Init+0x4a>
    2828:	213c                	lbu	a5,2(a0)
    282a:	e000e737          	lui	a4,0xe000e
    282e:	0792                	slli	a5,a5,0x4
    2830:	9736                	add	a4,a4,a3
    2832:	0ff7f793          	andi	a5,a5,255
    2836:	40f70023          	sb	a5,1024(a4) # e000e400 <__global_pointer$+0xc000dab0>
    283a:	4150                	lw	a2,4(a0)
    283c:	4705                	li	a4,1
    283e:	0056d793          	srli	a5,a3,0x5
    2842:	00d71733          	sll	a4,a4,a3
    2846:	ca09                	beqz	a2,2858 <NVIC_Init+0x3a>
    2848:	04078793          	addi	a5,a5,64 # 40022040 <__global_pointer$+0x200216f0>
    284c:	078a                	slli	a5,a5,0x2
    284e:	e000e6b7          	lui	a3,0xe000e
    2852:	97b6                	add	a5,a5,a3
    2854:	c398                	sw	a4,0(a5)
    2856:	8082                	ret
    2858:	06078793          	addi	a5,a5,96
    285c:	078a                	slli	a5,a5,0x2
    285e:	e000e6b7          	lui	a3,0xe000e
    2862:	97b6                	add	a5,a5,a3
    2864:	c398                	sw	a4,0(a5)
    2866:	8082                	ret
    2868:	4398                	lw	a4,0(a5)
    286a:	4605                	li	a2,1
    286c:	02c70863          	beq	a4,a2,289c <NVIC_Init+0x7e>
    2870:	438c                	lw	a1,0(a5)
    2872:	4709                	li	a4,2
    2874:	04e58163          	beq	a1,a4,28b6 <NVIC_Init+0x98>
    2878:	4398                	lw	a4,0(a5)
    287a:	460d                	li	a2,3
    287c:	00c70863          	beq	a4,a2,288c <NVIC_Init+0x6e>
    2880:	4398                	lw	a4,0(a5)
    2882:	4791                	li	a5,4
    2884:	faf71be3          	bne	a4,a5,283a <NVIC_Init+0x1c>
    2888:	311c                	lbu	a5,1(a0)
    288a:	b745                	j	282a <NVIC_Init+0xc>
    288c:	3110                	lbu	a2,1(a0)
    288e:	213c                	lbu	a5,2(a0)
    2890:	04c76863          	bltu	a4,a2,28e0 <NVIC_Init+0xc2>
    2894:	0606                	slli	a2,a2,0x1
    2896:	97b2                	add	a5,a5,a2
    2898:	0792                	slli	a5,a5,0x4
    289a:	a031                	j	28a6 <NVIC_Init+0x88>
    289c:	213c                	lbu	a5,2(a0)
    289e:	3110                	lbu	a2,1(a0)
    28a0:	0792                	slli	a5,a5,0x4
    28a2:	02e60563          	beq	a2,a4,28cc <NVIC_Init+0xae>
    28a6:	e000e737          	lui	a4,0xe000e
    28aa:	0ff7f793          	andi	a5,a5,255
    28ae:	9736                	add	a4,a4,a3
    28b0:	40f70023          	sb	a5,1024(a4) # e000e400 <__global_pointer$+0xc000dab0>
    28b4:	b759                	j	283a <NVIC_Init+0x1c>
    28b6:	3118                	lbu	a4,1(a0)
    28b8:	213c                	lbu	a5,2(a0)
    28ba:	02e67863          	bgeu	a2,a4,28ea <NVIC_Init+0xcc>
    28be:	03e70713          	addi	a4,a4,62
    28c2:	070a                	slli	a4,a4,0x2
    28c4:	97ba                	add	a5,a5,a4
    28c6:	0ff7f793          	andi	a5,a5,255
    28ca:	0792                	slli	a5,a5,0x4
    28cc:	f807e793          	ori	a5,a5,-128
    28d0:	e000e737          	lui	a4,0xe000e
    28d4:	0ff7f793          	andi	a5,a5,255
    28d8:	9736                	add	a4,a4,a3
    28da:	40f70023          	sb	a5,1024(a4) # e000e400 <__global_pointer$+0xc000dab0>
    28de:	bfb1                	j	283a <NVIC_Init+0x1c>
    28e0:	07c60613          	addi	a2,a2,124 # 1007c <_data_lma+0xc394>
    28e4:	0606                	slli	a2,a2,0x1
    28e6:	97b2                	add	a5,a5,a2
    28e8:	bff9                	j	28c6 <NVIC_Init+0xa8>
    28ea:	070a                	slli	a4,a4,0x2
    28ec:	97ba                	add	a5,a5,a4
    28ee:	0792                	slli	a5,a5,0x4
    28f0:	bf5d                	j	28a6 <NVIC_Init+0x88>

000028f2 <RCC_AHBPeriphClockCmd>:
    28f2:	c599                	beqz	a1,2900 <RCC_AHBPeriphClockCmd+0xe>
    28f4:	40021737          	lui	a4,0x40021
    28f8:	4b5c                	lw	a5,20(a4)
    28fa:	8d5d                	or	a0,a0,a5
    28fc:	cb48                	sw	a0,20(a4)
    28fe:	8082                	ret
    2900:	400217b7          	lui	a5,0x40021
    2904:	4bd8                	lw	a4,20(a5)
    2906:	fff54513          	not	a0,a0
    290a:	8d79                	and	a0,a0,a4
    290c:	cbc8                	sw	a0,20(a5)
    290e:	8082                	ret

00002910 <RCC_APB2PeriphClockCmd>:
    2910:	c599                	beqz	a1,291e <RCC_APB2PeriphClockCmd+0xe>
    2912:	40021737          	lui	a4,0x40021
    2916:	4f1c                	lw	a5,24(a4)
    2918:	8d5d                	or	a0,a0,a5
    291a:	cf08                	sw	a0,24(a4)
    291c:	8082                	ret
    291e:	400217b7          	lui	a5,0x40021
    2922:	4f98                	lw	a4,24(a5)
    2924:	fff54513          	not	a0,a0
    2928:	8d79                	and	a0,a0,a4
    292a:	cf88                	sw	a0,24(a5)
    292c:	8082                	ret

0000292e <SPI_Init>:
    292e:	21ba                	lhu	a4,2(a1)
    2930:	219e                	lhu	a5,0(a1)
    2932:	21d2                	lhu	a2,4(a1)
    2934:	21f6                	lhu	a3,6(a1)
    2936:	0085d303          	lhu	t1,8(a1)
    293a:	8fd9                	or	a5,a5,a4
    293c:	8fd1                	or	a5,a5,a2
    293e:	25ba                	lhu	a4,10(a1)
    2940:	00c5d283          	lhu	t0,12(a1)
    2944:	8fd5                	or	a5,a5,a3
    2946:	2112                	lhu	a2,0(a0)
    2948:	25f6                	lhu	a3,14(a1)
    294a:	0067e7b3          	or	a5,a5,t1
    294e:	8fd9                	or	a5,a5,a4
    2950:	670d                	lui	a4,0x3
    2952:	0057e7b3          	or	a5,a5,t0
    2956:	04070713          	addi	a4,a4,64 # 3040 <PS2Keymap_Japanese+0x100>
    295a:	8fd5                	or	a5,a5,a3
    295c:	8f71                	and	a4,a4,a2
    295e:	2996                	lhu	a3,16(a1)
    2960:	8fd9                	or	a5,a5,a4
    2962:	a11e                	sh	a5,0(a0)
    2964:	a916                	sh	a3,16(a0)
    2966:	8082                	ret

00002968 <SPI_Cmd>:
    2968:	211e                	lhu	a5,0(a0)
    296a:	c589                	beqz	a1,2974 <SPI_Cmd+0xc>
    296c:	0407e793          	ori	a5,a5,64
    2970:	a11e                	sh	a5,0(a0)
    2972:	8082                	ret
    2974:	07c2                	slli	a5,a5,0x10
    2976:	83c1                	srli	a5,a5,0x10
    2978:	fbf7f793          	andi	a5,a5,-65
    297c:	07c2                	slli	a5,a5,0x10
    297e:	83c1                	srli	a5,a5,0x10
    2980:	a11e                	sh	a5,0(a0)
    2982:	8082                	ret

00002984 <SPI_I2S_DMACmd>:
    2984:	215e                	lhu	a5,4(a0)
    2986:	c601                	beqz	a2,298e <SPI_I2S_DMACmd+0xa>
    2988:	8ddd                	or	a1,a1,a5
    298a:	a14e                	sh	a1,4(a0)
    298c:	8082                	ret
    298e:	fff5c593          	not	a1,a1
    2992:	8dfd                	and	a1,a1,a5
    2994:	a14e                	sh	a1,4(a0)
    2996:	8082                	ret

00002998 <TIM_TimeBaseInit>:
    2998:	211e                	lhu	a5,0(a0)
    299a:	40013737          	lui	a4,0x40013
    299e:	c0070713          	addi	a4,a4,-1024 # 40012c00 <__global_pointer$+0x200122b0>
    29a2:	07c2                	slli	a5,a5,0x10
    29a4:	83c1                	srli	a5,a5,0x10
    29a6:	0065d303          	lhu	t1,6(a1)
    29aa:	21d2                	lhu	a2,4(a1)
    29ac:	2196                	lhu	a3,0(a1)
    29ae:	02e50e63          	beq	a0,a4,29ea <TIM_TimeBaseInit+0x52>
    29b2:	40000737          	lui	a4,0x40000
    29b6:	00e50c63          	beq	a0,a4,29ce <TIM_TimeBaseInit+0x36>
    29ba:	cff7f793          	andi	a5,a5,-769
    29be:	00f367b3          	or	a5,t1,a5
    29c2:	a11e                	sh	a5,0(a0)
    29c4:	b552                	sh	a2,44(a0)
    29c6:	b516                	sh	a3,40(a0)
    29c8:	4785                	li	a5,1
    29ca:	a95e                	sh	a5,20(a0)
    29cc:	8082                	ret
    29ce:	21ba                	lhu	a4,2(a1)
    29d0:	f8f7f793          	andi	a5,a5,-113
    29d4:	8f5d                	or	a4,a4,a5
    29d6:	cff77713          	andi	a4,a4,-769
    29da:	00e367b3          	or	a5,t1,a4
    29de:	a11e                	sh	a5,0(a0)
    29e0:	b552                	sh	a2,44(a0)
    29e2:	b516                	sh	a3,40(a0)
    29e4:	4785                	li	a5,1
    29e6:	a95e                	sh	a5,20(a0)
    29e8:	8082                	ret
    29ea:	21ba                	lhu	a4,2(a1)
    29ec:	f8f7f793          	andi	a5,a5,-113
    29f0:	8fd9                	or	a5,a5,a4
    29f2:	cff7f793          	andi	a5,a5,-769
    29f6:	00f367b3          	or	a5,t1,a5
    29fa:	a11e                	sh	a5,0(a0)
    29fc:	b552                	sh	a2,44(a0)
    29fe:	b516                	sh	a3,40(a0)
    2a00:	259c                	lbu	a5,8(a1)
    2a02:	b91e                	sh	a5,48(a0)
    2a04:	4785                	li	a5,1
    2a06:	a95e                	sh	a5,20(a0)
    2a08:	8082                	ret

00002a0a <TIM_OC3Init>:
    2a0a:	311a                	lhu	a4,32(a0)
    2a0c:	2592                	lhu	a2,8(a1)
    2a0e:	0025d283          	lhu	t0,2(a1)
    2a12:	0742                	slli	a4,a4,0x10
    2a14:	8341                	srli	a4,a4,0x10
    2a16:	eff77713          	andi	a4,a4,-257
    2a1a:	0742                	slli	a4,a4,0x10
    2a1c:	8341                	srli	a4,a4,0x10
    2a1e:	b11a                	sh	a4,32(a0)
    2a20:	311e                	lhu	a5,32(a0)
    2a22:	2156                	lhu	a3,4(a0)
    2a24:	2d5a                	lhu	a4,28(a0)
    2a26:	07c2                	slli	a5,a5,0x10
    2a28:	83c1                	srli	a5,a5,0x10
    2a2a:	00c2e633          	or	a2,t0,a2
    2a2e:	0622                	slli	a2,a2,0x8
    2a30:	0005d303          	lhu	t1,0(a1)
    2a34:	0742                	slli	a4,a4,0x10
    2a36:	dff7f793          	andi	a5,a5,-513
    2a3a:	8fd1                	or	a5,a5,a2
    2a3c:	8341                	srli	a4,a4,0x10
    2a3e:	40013637          	lui	a2,0x40013
    2a42:	f8c77713          	andi	a4,a4,-116
    2a46:	06c2                	slli	a3,a3,0x10
    2a48:	07c2                	slli	a5,a5,0x10
    2a4a:	c0060613          	addi	a2,a2,-1024 # 40012c00 <__global_pointer$+0x200122b0>
    2a4e:	82c1                	srli	a3,a3,0x10
    2a50:	00676733          	or	a4,a4,t1
    2a54:	83c1                	srli	a5,a5,0x10
    2a56:	00c50863          	beq	a0,a2,2a66 <TIM_OC3Init+0x5c>
    2a5a:	21f2                	lhu	a2,6(a1)
    2a5c:	a156                	sh	a3,4(a0)
    2a5e:	ad5a                	sh	a4,28(a0)
    2a60:	dd50                	sw	a2,60(a0)
    2a62:	b11e                	sh	a5,32(a0)
    2a64:	8082                	ret
    2a66:	00a5d283          	lhu	t0,10(a1)
    2a6a:	767d                	lui	a2,0xfffff
    2a6c:	00c5d303          	lhu	t1,12(a1)
    2a70:	00e5d383          	lhu	t2,14(a1)
    2a74:	7ff60613          	addi	a2,a2,2047 # fffff7ff <__global_pointer$+0xdfffeeaf>
    2a78:	8ff1                	and	a5,a5,a2
    2a7a:	00829613          	slli	a2,t0,0x8
    2a7e:	8fd1                	or	a5,a5,a2
    2a80:	7675                	lui	a2,0xffffd
    2a82:	167d                	addi	a2,a2,-1
    2a84:	0063e333          	or	t1,t2,t1
    2a88:	0045d283          	lhu	t0,4(a1)
    2a8c:	8ef1                	and	a3,a3,a2
    2a8e:	0312                	slli	t1,t1,0x4
    2a90:	07c2                	slli	a5,a5,0x10
    2a92:	0066e6b3          	or	a3,a3,t1
    2a96:	83c1                	srli	a5,a5,0x10
    2a98:	06c2                	slli	a3,a3,0x10
    2a9a:	21f2                	lhu	a2,6(a1)
    2a9c:	bff7f793          	andi	a5,a5,-1025
    2aa0:	02a2                	slli	t0,t0,0x8
    2aa2:	82c1                	srli	a3,a3,0x10
    2aa4:	a156                	sh	a3,4(a0)
    2aa6:	0057e7b3          	or	a5,a5,t0
    2aaa:	ad5a                	sh	a4,28(a0)
    2aac:	07c2                	slli	a5,a5,0x10
    2aae:	83c1                	srli	a5,a5,0x10
    2ab0:	dd50                	sw	a2,60(a0)
    2ab2:	b11e                	sh	a5,32(a0)
    2ab4:	8082                	ret

00002ab6 <TIM_OC4Init>:
    2ab6:	311a                	lhu	a4,32(a0)
    2ab8:	77fd                	lui	a5,0xfffff
    2aba:	17fd                	addi	a5,a5,-1
    2abc:	8ff9                	and	a5,a5,a4
    2abe:	b11e                	sh	a5,32(a0)
    2ac0:	21b6                	lhu	a3,2(a1)
    2ac2:	259e                	lhu	a5,8(a1)
    2ac4:	02055283          	lhu	t0,32(a0)
    2ac8:	0005d303          	lhu	t1,0(a1)
    2acc:	2152                	lhu	a2,4(a0)
    2ace:	01c55383          	lhu	t2,28(a0)
    2ad2:	8edd                	or	a3,a3,a5
    2ad4:	7765                	lui	a4,0xffff9
    2ad6:	77f9                	lui	a5,0xffffe
    2ad8:	cff70713          	addi	a4,a4,-769 # ffff8cff <__global_pointer$+0xdfff83af>
    2adc:	17fd                	addi	a5,a5,-1
    2ade:	06b2                	slli	a3,a3,0xc
    2ae0:	00777733          	and	a4,a4,t2
    2ae4:	0322                	slli	t1,t1,0x8
    2ae6:	0057f7b3          	and	a5,a5,t0
    2aea:	8fd5                	or	a5,a5,a3
    2aec:	00676733          	or	a4,a4,t1
    2af0:	400136b7          	lui	a3,0x40013
    2af4:	0642                	slli	a2,a2,0x10
    2af6:	0742                	slli	a4,a4,0x10
    2af8:	07c2                	slli	a5,a5,0x10
    2afa:	c0068693          	addi	a3,a3,-1024 # 40012c00 <__global_pointer$+0x200122b0>
    2afe:	8241                	srli	a2,a2,0x10
    2b00:	8341                	srli	a4,a4,0x10
    2b02:	83c1                	srli	a5,a5,0x10
    2b04:	00d50863          	beq	a0,a3,2b14 <TIM_OC4Init+0x5e>
    2b08:	21f6                	lhu	a3,6(a1)
    2b0a:	a152                	sh	a2,4(a0)
    2b0c:	ad5a                	sh	a4,28(a0)
    2b0e:	c134                	sw	a3,64(a0)
    2b10:	b11e                	sh	a5,32(a0)
    2b12:	8082                	ret
    2b14:	00c5d303          	lhu	t1,12(a1)
    2b18:	76f1                	lui	a3,0xffffc
    2b1a:	16fd                	addi	a3,a3,-1
    2b1c:	8e75                	and	a2,a2,a3
    2b1e:	00631693          	slli	a3,t1,0x6
    2b22:	8e55                	or	a2,a2,a3
    2b24:	0642                	slli	a2,a2,0x10
    2b26:	21f6                	lhu	a3,6(a1)
    2b28:	8241                	srli	a2,a2,0x10
    2b2a:	a152                	sh	a2,4(a0)
    2b2c:	ad5a                	sh	a4,28(a0)
    2b2e:	c134                	sw	a3,64(a0)
    2b30:	b11e                	sh	a5,32(a0)
    2b32:	8082                	ret

00002b34 <TIM_Cmd>:
    2b34:	211e                	lhu	a5,0(a0)
    2b36:	c589                	beqz	a1,2b40 <TIM_Cmd+0xc>
    2b38:	0017e793          	ori	a5,a5,1
    2b3c:	a11e                	sh	a5,0(a0)
    2b3e:	8082                	ret
    2b40:	07c2                	slli	a5,a5,0x10
    2b42:	83c1                	srli	a5,a5,0x10
    2b44:	9bf9                	andi	a5,a5,-2
    2b46:	07c2                	slli	a5,a5,0x10
    2b48:	83c1                	srli	a5,a5,0x10
    2b4a:	a11e                	sh	a5,0(a0)
    2b4c:	8082                	ret

00002b4e <TIM_CtrlPWMOutputs>:
    2b4e:	04455783          	lhu	a5,68(a0)
    2b52:	c591                	beqz	a1,2b5e <TIM_CtrlPWMOutputs+0x10>
    2b54:	6721                	lui	a4,0x8
    2b56:	8fd9                	or	a5,a5,a4
    2b58:	04f51223          	sh	a5,68(a0)
    2b5c:	8082                	ret
    2b5e:	07c6                	slli	a5,a5,0x11
    2b60:	83c5                	srli	a5,a5,0x11
    2b62:	04f51223          	sh	a5,68(a0)
    2b66:	8082                	ret

00002b68 <TIM_ITConfig>:
    2b68:	255e                	lhu	a5,12(a0)
    2b6a:	c601                	beqz	a2,2b72 <TIM_ITConfig+0xa>
    2b6c:	8ddd                	or	a1,a1,a5
    2b6e:	a54e                	sh	a1,12(a0)
    2b70:	8082                	ret
    2b72:	fff5c593          	not	a1,a1
    2b76:	8dfd                	and	a1,a1,a5
    2b78:	a54e                	sh	a1,12(a0)
    2b7a:	8082                	ret

00002b7c <TIM_ARRPreloadConfig>:
    2b7c:	211e                	lhu	a5,0(a0)
    2b7e:	c589                	beqz	a1,2b88 <TIM_ARRPreloadConfig+0xc>
    2b80:	0807e793          	ori	a5,a5,128
    2b84:	a11e                	sh	a5,0(a0)
    2b86:	8082                	ret
    2b88:	07c2                	slli	a5,a5,0x10
    2b8a:	83c1                	srli	a5,a5,0x10
    2b8c:	f7f7f793          	andi	a5,a5,-129
    2b90:	07c2                	slli	a5,a5,0x10
    2b92:	83c1                	srli	a5,a5,0x10
    2b94:	a11e                	sh	a5,0(a0)
    2b96:	8082                	ret

00002b98 <TIM_OC3PreloadConfig>:
    2b98:	2d5e                	lhu	a5,28(a0)
    2b9a:	07c2                	slli	a5,a5,0x10
    2b9c:	83c1                	srli	a5,a5,0x10
    2b9e:	9bdd                	andi	a5,a5,-9
    2ba0:	8ddd                	or	a1,a1,a5
    2ba2:	ad4e                	sh	a1,28(a0)
    2ba4:	8082                	ret

00002ba6 <TIM_OC4PreloadConfig>:
    2ba6:	2d5a                	lhu	a4,28(a0)
    2ba8:	77fd                	lui	a5,0xfffff
    2baa:	7ff78793          	addi	a5,a5,2047 # fffff7ff <__global_pointer$+0xdfffeeaf>
    2bae:	8ff9                	and	a5,a5,a4
    2bb0:	05a2                	slli	a1,a1,0x8
    2bb2:	8fcd                	or	a5,a5,a1
    2bb4:	07c2                	slli	a5,a5,0x10
    2bb6:	83c1                	srli	a5,a5,0x10
    2bb8:	ad5e                	sh	a5,28(a0)
    2bba:	8082                	ret

00002bbc <TIM_SetCompare4>:
    2bbc:	c12c                	sw	a1,64(a0)
    2bbe:	8082                	ret

00002bc0 <TIM_ClearFlag>:
    2bc0:	fff5c593          	not	a1,a1
    2bc4:	05c2                	slli	a1,a1,0x10
    2bc6:	81c1                	srli	a1,a1,0x10
    2bc8:	a90e                	sh	a1,16(a0)
    2bca:	8082                	ret

00002bcc <_sbrk>:
    2bcc:	200007b7          	lui	a5,0x20000
    2bd0:	0ec78793          	addi	a5,a5,236 # 200000ec <curbrk.4059>
    2bd4:	4394                	lw	a3,0(a5)
    2bd6:	bc818713          	addi	a4,gp,-1080 # 20000518 <_ebss>
    2bda:	9536                	add	a0,a0,a3
    2bdc:	00e56963          	bltu	a0,a4,2bee <_sbrk+0x22>
    2be0:	db018713          	addi	a4,gp,-592 # 20000700 <_heap_end>
    2be4:	00a76563          	bltu	a4,a0,2bee <_sbrk+0x22>
    2be8:	c388                	sw	a0,0(a5)
    2bea:	8536                	mv	a0,a3
    2bec:	8082                	ret
    2bee:	56fd                	li	a3,-1
    2bf0:	8536                	mv	a0,a3
    2bf2:	8082                	ret

00002bf4 <malloc>:
    2bf4:	1fffd797          	auipc	a5,0x1fffd
    2bf8:	55c78793          	addi	a5,a5,1372 # 20000150 <_impure_ptr>
    2bfc:	85aa                	mv	a1,a0
    2bfe:	4388                	lw	a0,0(a5)
    2c00:	a0a1                	j	2c48 <_malloc_r>

00002c02 <memmove>:
    2c02:	04a5f163          	bgeu	a1,a0,2c44 <memmove+0x42>
    2c06:	00c586b3          	add	a3,a1,a2
    2c0a:	02d57d63          	bgeu	a0,a3,2c44 <memmove+0x42>
    2c0e:	fff64593          	not	a1,a2
    2c12:	4781                	li	a5,0
    2c14:	17fd                	addi	a5,a5,-1
    2c16:	00f59363          	bne	a1,a5,2c1c <memmove+0x1a>
    2c1a:	8082                	ret
    2c1c:	00f68733          	add	a4,a3,a5
    2c20:	00074303          	lbu	t1,0(a4) # 8000 <_data_lma+0x4318>
    2c24:	00c78733          	add	a4,a5,a2
    2c28:	972a                	add	a4,a4,a0
    2c2a:	00670023          	sb	t1,0(a4)
    2c2e:	b7dd                	j	2c14 <memmove+0x12>
    2c30:	00f58733          	add	a4,a1,a5
    2c34:	2314                	lbu	a3,0(a4)
    2c36:	00f50733          	add	a4,a0,a5
    2c3a:	0785                	addi	a5,a5,1
    2c3c:	a314                	sb	a3,0(a4)
    2c3e:	fef619e3          	bne	a2,a5,2c30 <memmove+0x2e>
    2c42:	8082                	ret
    2c44:	4781                	li	a5,0
    2c46:	bfe5                	j	2c3e <memmove+0x3c>

00002c48 <_malloc_r>:
    2c48:	1141                	addi	sp,sp,-16
    2c4a:	c226                	sw	s1,4(sp)
    2c4c:	00358493          	addi	s1,a1,3
    2c50:	98f1                	andi	s1,s1,-4
    2c52:	c606                	sw	ra,12(sp)
    2c54:	c422                	sw	s0,8(sp)
    2c56:	04a1                	addi	s1,s1,8
    2c58:	47b1                	li	a5,12
    2c5a:	04f4f563          	bgeu	s1,a5,2ca4 <_malloc_r+0x5c>
    2c5e:	44b1                	li	s1,12
    2c60:	04b4e463          	bltu	s1,a1,2ca8 <_malloc_r+0x60>
    2c64:	c02a                	sw	a0,0(sp)
    2c66:	2a91                	jal	2dba <__malloc_lock>
    2c68:	80818713          	addi	a4,gp,-2040 # 20000158 <_edata>
    2c6c:	4314                	lw	a3,0(a4)
    2c6e:	4782                	lw	a5,0(sp)
    2c70:	8436                	mv	s0,a3
    2c72:	e039                	bnez	s0,2cb8 <_malloc_r+0x70>
    2c74:	80c18713          	addi	a4,gp,-2036 # 2000015c <__malloc_sbrk_start>
    2c78:	4318                	lw	a4,0(a4)
    2c7a:	eb01                	bnez	a4,2c8a <_malloc_r+0x42>
    2c7c:	853e                	mv	a0,a5
    2c7e:	4581                	li	a1,0
    2c80:	c03e                	sw	a5,0(sp)
    2c82:	2239                	jal	2d90 <_sbrk_r>
    2c84:	80a1a623          	sw	a0,-2036(gp) # 2000015c <__malloc_sbrk_start>
    2c88:	4782                	lw	a5,0(sp)
    2c8a:	853e                	mv	a0,a5
    2c8c:	85a6                	mv	a1,s1
    2c8e:	c03e                	sw	a5,0(sp)
    2c90:	2201                	jal	2d90 <_sbrk_r>
    2c92:	577d                	li	a4,-1
    2c94:	4782                	lw	a5,0(sp)
    2c96:	06e51463          	bne	a0,a4,2cfe <_malloc_r+0xb6>
    2c9a:	4731                	li	a4,12
    2c9c:	c398                	sw	a4,0(a5)
    2c9e:	853e                	mv	a0,a5
    2ca0:	2a31                	jal	2dbc <__malloc_unlock>
    2ca2:	a029                	j	2cac <_malloc_r+0x64>
    2ca4:	fa04dee3          	bgez	s1,2c60 <_malloc_r+0x18>
    2ca8:	47b1                	li	a5,12
    2caa:	c11c                	sw	a5,0(a0)
    2cac:	4501                	li	a0,0
    2cae:	40b2                	lw	ra,12(sp)
    2cb0:	4422                	lw	s0,8(sp)
    2cb2:	4492                	lw	s1,4(sp)
    2cb4:	0141                	addi	sp,sp,16
    2cb6:	8082                	ret
    2cb8:	4018                	lw	a4,0(s0)
    2cba:	8f05                	sub	a4,a4,s1
    2cbc:	02074e63          	bltz	a4,2cf8 <_malloc_r+0xb0>
    2cc0:	462d                	li	a2,11
    2cc2:	00e67663          	bgeu	a2,a4,2cce <_malloc_r+0x86>
    2cc6:	c018                	sw	a4,0(s0)
    2cc8:	943a                	add	s0,s0,a4
    2cca:	c004                	sw	s1,0(s0)
    2ccc:	a031                	j	2cd8 <_malloc_r+0x90>
    2cce:	4058                	lw	a4,4(s0)
    2cd0:	02869263          	bne	a3,s0,2cf4 <_malloc_r+0xac>
    2cd4:	80e1a423          	sw	a4,-2040(gp) # 20000158 <_edata>
    2cd8:	853e                	mv	a0,a5
    2cda:	20cd                	jal	2dbc <__malloc_unlock>
    2cdc:	00b40513          	addi	a0,s0,11
    2ce0:	00440713          	addi	a4,s0,4
    2ce4:	9961                	andi	a0,a0,-8
    2ce6:	40e507b3          	sub	a5,a0,a4
    2cea:	d3f1                	beqz	a5,2cae <_malloc_r+0x66>
    2cec:	943e                	add	s0,s0,a5
    2cee:	8f09                	sub	a4,a4,a0
    2cf0:	c018                	sw	a4,0(s0)
    2cf2:	bf75                	j	2cae <_malloc_r+0x66>
    2cf4:	c2d8                	sw	a4,4(a3)
    2cf6:	b7cd                	j	2cd8 <_malloc_r+0x90>
    2cf8:	86a2                	mv	a3,s0
    2cfa:	4040                	lw	s0,4(s0)
    2cfc:	bf9d                	j	2c72 <_malloc_r+0x2a>
    2cfe:	00350413          	addi	s0,a0,3
    2d02:	9871                	andi	s0,s0,-4
    2d04:	fc8503e3          	beq	a0,s0,2cca <_malloc_r+0x82>
    2d08:	40a405b3          	sub	a1,s0,a0
    2d0c:	853e                	mv	a0,a5
    2d0e:	c03e                	sw	a5,0(sp)
    2d10:	2041                	jal	2d90 <_sbrk_r>
    2d12:	577d                	li	a4,-1
    2d14:	4782                	lw	a5,0(sp)
    2d16:	fae51ae3          	bne	a0,a4,2cca <_malloc_r+0x82>
    2d1a:	b741                	j	2c9a <_malloc_r+0x52>

00002d1c <random>:
    2d1c:	1151                	addi	sp,sp,-12
    2d1e:	1fffd797          	auipc	a5,0x1fffd
    2d22:	43278793          	addi	a5,a5,1074 # 20000150 <_impure_ptr>
    2d26:	c222                	sw	s0,4(sp)
    2d28:	4380                	lw	s0,0(a5)
    2d2a:	c406                	sw	ra,8(sp)
    2d2c:	5c1c                	lw	a5,56(s0)
    2d2e:	eb95                	bnez	a5,2d62 <random+0x46>
    2d30:	4561                	li	a0,24
    2d32:	ec3ff0ef          	jal	ra,2bf4 <malloc>
    2d36:	abcd37b7          	lui	a5,0xabcd3
    2d3a:	dc08                	sw	a0,56(s0)
    2d3c:	30e78793          	addi	a5,a5,782 # abcd330e <__global_pointer$+0x8bcd29be>
    2d40:	c11c                	sw	a5,0(a0)
    2d42:	e66d17b7          	lui	a5,0xe66d1
    2d46:	23478793          	addi	a5,a5,564 # e66d1234 <__global_pointer$+0xc66d08e4>
    2d4a:	c15c                	sw	a5,4(a0)
    2d4c:	0005e7b7          	lui	a5,0x5e
    2d50:	eec78793          	addi	a5,a5,-276 # 5deec <_data_lma+0x5a204>
    2d54:	c51c                	sw	a5,8(a0)
    2d56:	47ad                	li	a5,11
    2d58:	a55e                	sh	a5,12(a0)
    2d5a:	4705                	li	a4,1
    2d5c:	4781                	li	a5,0
    2d5e:	c918                	sw	a4,16(a0)
    2d60:	c95c                	sw	a5,20(a0)
    2d62:	5c00                	lw	s0,56(s0)
    2d64:	00001797          	auipc	a5,0x1
    2d68:	f7c78793          	addi	a5,a5,-132 # 3ce0 <msxfont+0x804>
    2d6c:	4390                	lw	a2,0(a5)
    2d6e:	4808                	lw	a0,16(s0)
    2d70:	484c                	lw	a1,20(s0)
    2d72:	43d4                	lw	a3,4(a5)
    2d74:	20a9                	jal	2dbe <__muldi3>
    2d76:	00150793          	addi	a5,a0,1
    2d7a:	00a7b533          	sltu	a0,a5,a0
    2d7e:	952e                	add	a0,a0,a1
    2d80:	c848                	sw	a0,20(s0)
    2d82:	c81c                	sw	a5,16(s0)
    2d84:	40a2                	lw	ra,8(sp)
    2d86:	4412                	lw	s0,4(sp)
    2d88:	0506                	slli	a0,a0,0x1
    2d8a:	8105                	srli	a0,a0,0x1
    2d8c:	0131                	addi	sp,sp,12
    2d8e:	8082                	ret

00002d90 <_sbrk_r>:
    2d90:	1151                	addi	sp,sp,-12
    2d92:	c222                	sw	s0,4(sp)
    2d94:	842a                	mv	s0,a0
    2d96:	852e                	mv	a0,a1
    2d98:	bc01a223          	sw	zero,-1084(gp) # 20000514 <errno>
    2d9c:	c406                	sw	ra,8(sp)
    2d9e:	e2fff0ef          	jal	ra,2bcc <_sbrk>
    2da2:	57fd                	li	a5,-1
    2da4:	00f51763          	bne	a0,a5,2db2 <_sbrk_r+0x22>
    2da8:	bc418793          	addi	a5,gp,-1084 # 20000514 <errno>
    2dac:	439c                	lw	a5,0(a5)
    2dae:	c391                	beqz	a5,2db2 <_sbrk_r+0x22>
    2db0:	c01c                	sw	a5,0(s0)
    2db2:	40a2                	lw	ra,8(sp)
    2db4:	4412                	lw	s0,4(sp)
    2db6:	0131                	addi	sp,sp,12
    2db8:	8082                	ret

00002dba <__malloc_lock>:
    2dba:	8082                	ret

00002dbc <__malloc_unlock>:
    2dbc:	8082                	ret

00002dbe <__muldi3>:
    2dbe:	1121                	addi	sp,sp,-24
    2dc0:	c22a                	sw	a0,4(sp)
    2dc2:	c036                	sw	a3,0(sp)
    2dc4:	ca06                	sw	ra,20(sp)
    2dc6:	86aa                	mv	a3,a0
    2dc8:	c822                	sw	s0,16(sp)
    2dca:	c626                	sw	s1,12(sp)
    2dcc:	8732                	mv	a4,a2
    2dce:	c432                	sw	a2,8(sp)
    2dd0:	4781                	li	a5,0
    2dd2:	4501                	li	a0,0
    2dd4:	4301                	li	t1,0
    2dd6:	00668633          	add	a2,a3,t1
    2dda:	00177393          	andi	t2,a4,1
    2dde:	00f50433          	add	s0,a0,a5
    2de2:	01f6d293          	srli	t0,a3,0x1f
    2de6:	8305                	srli	a4,a4,0x1
    2de8:	006634b3          	sltu	s1,a2,t1
    2dec:	0786                	slli	a5,a5,0x1
    2dee:	00038563          	beqz	t2,2df8 <__muldi3+0x3a>
    2df2:	00848533          	add	a0,s1,s0
    2df6:	8332                	mv	t1,a2
    2df8:	0686                	slli	a3,a3,0x1
    2dfa:	0057e7b3          	or	a5,a5,t0
    2dfe:	ff61                	bnez	a4,2dd6 <__muldi3+0x18>
    2e00:	87aa                	mv	a5,a0
    2e02:	c589                	beqz	a1,2e0c <__muldi3+0x4e>
    2e04:	4522                	lw	a0,8(sp)
    2e06:	aaefd0ef          	jal	ra,b4 <__mulsi3>
    2e0a:	97aa                	add	a5,a5,a0
    2e0c:	4702                	lw	a4,0(sp)
    2e0e:	c711                	beqz	a4,2e1a <__muldi3+0x5c>
    2e10:	4512                	lw	a0,4(sp)
    2e12:	85ba                	mv	a1,a4
    2e14:	aa0fd0ef          	jal	ra,b4 <__mulsi3>
    2e18:	97aa                	add	a5,a5,a0
    2e1a:	40d2                	lw	ra,20(sp)
    2e1c:	4442                	lw	s0,16(sp)
    2e1e:	44b2                	lw	s1,12(sp)
    2e20:	851a                	mv	a0,t1
    2e22:	85be                	mv	a1,a5
    2e24:	0161                	addi	sp,sp,24
    2e26:	8082                	ret
    2e28:	0332                	slli	t1,t1,0xc
    2e2a:	0000                	unimp
    2e2c:	03c4                	addi	s1,sp,452
    2e2e:	0000                	unimp
    2e30:	03c4                	addi	s1,sp,452
    2e32:	0000                	unimp
    2e34:	03c4                	addi	s1,sp,452
    2e36:	0000                	unimp
    2e38:	03c4                	addi	s1,sp,452
    2e3a:	0000                	unimp
    2e3c:	0332                	slli	t1,t1,0xc
    2e3e:	0000                	unimp
    2e40:	0332                	slli	t1,t1,0xc
    2e42:	0000                	unimp
    2e44:	0332                	slli	t1,t1,0xc
    2e46:	0000                	unimp
    2e48:	0332                	slli	t1,t1,0xc
    2e4a:	0000                	unimp
    2e4c:	03c4                	addi	s1,sp,452
    2e4e:	0000                	unimp
    2e50:	03c4                	addi	s1,sp,452
    2e52:	0000                	unimp
    2e54:	03c4                	addi	s1,sp,452
    2e56:	0000                	unimp
    2e58:	0332                	slli	t1,t1,0xc
    2e5a:	0000                	unimp
    2e5c:	0332                	slli	t1,t1,0xc
    2e5e:	0000                	unimp
    2e60:	0332                	slli	t1,t1,0xc
    2e62:	0000                	unimp
    2e64:	0332                	slli	t1,t1,0xc
    2e66:	0000                	unimp
    2e68:	03c4                	addi	s1,sp,452
    2e6a:	0000                	unimp
    2e6c:	03c4                	addi	s1,sp,452
    2e6e:	0000                	unimp
    2e70:	03c4                	addi	s1,sp,452
    2e72:	0000                	unimp
    2e74:	03c4                	addi	s1,sp,452
    2e76:	0000                	unimp
    2e78:	03c4                	addi	s1,sp,452
    2e7a:	0000                	unimp
    2e7c:	0332                	slli	t1,t1,0xc
    2e7e:	0000                	unimp
    2e80:	0332                	slli	t1,t1,0xc
    2e82:	0000                	unimp
    2e84:	0332                	slli	t1,t1,0xc
    2e86:	0000                	unimp
    2e88:	0332                	slli	t1,t1,0xc
    2e8a:	0000                	unimp
    2e8c:	03c4                	addi	s1,sp,452
    2e8e:	0000                	unimp
    2e90:	03c4                	addi	s1,sp,452
    2e92:	0000                	unimp
    2e94:	03c4                	addi	s1,sp,452
    2e96:	0000                	unimp
    2e98:	0332                	slli	t1,t1,0xc
    2e9a:	0000                	unimp
    2e9c:	0332                	slli	t1,t1,0xc
    2e9e:	0000                	unimp
    2ea0:	0332                	slli	t1,t1,0xc
    2ea2:	0000                	unimp
    2ea4:	0332                	slli	t1,t1,0xc
    2ea6:	0000                	unimp
    2ea8:	0332                	slli	t1,t1,0xc
    2eaa:	0000                	unimp
    2eac:	03c4                	addi	s1,sp,452
    2eae:	0000                	unimp
    2eb0:	03c4                	addi	s1,sp,452
    2eb2:	0000                	unimp
    2eb4:	03c4                	addi	s1,sp,452
    2eb6:	0000                	unimp
    2eb8:	03c4                	addi	s1,sp,452
    2eba:	0000                	unimp
    2ebc:	0332                	slli	t1,t1,0xc
    2ebe:	0000                	unimp
    2ec0:	0332                	slli	t1,t1,0xc
    2ec2:	0000                	unimp
    2ec4:	0332                	slli	t1,t1,0xc
    2ec6:	0000                	unimp
    2ec8:	03c4                	addi	s1,sp,452
    2eca:	0000                	unimp
    2ecc:	03c4                	addi	s1,sp,452
    2ece:	0000                	unimp
    2ed0:	03c4                	addi	s1,sp,452
    2ed2:	0000                	unimp
    2ed4:	03c4                	addi	s1,sp,452
    2ed6:	0000                	unimp
    2ed8:	03c4                	addi	s1,sp,452
    2eda:	0000                	unimp
    2edc:	0332                	slli	t1,t1,0xc
    2ede:	0000                	unimp
    2ee0:	0332                	slli	t1,t1,0xc
    2ee2:	0000                	unimp
    2ee4:	0332                	slli	t1,t1,0xc
    2ee6:	0000                	unimp
    2ee8:	03c4                	addi	s1,sp,452
    2eea:	0000                	unimp
    2eec:	03c4                	addi	s1,sp,452
    2eee:	0000                	unimp
    2ef0:	03c4                	addi	s1,sp,452
    2ef2:	0000                	unimp
    2ef4:	03c4                	addi	s1,sp,452
    2ef6:	0000                	unimp
    2ef8:	03c4                	addi	s1,sp,452
    2efa:	0000                	unimp
    2efc:	03c4                	addi	s1,sp,452
    2efe:	0000                	unimp
    2f00:	0332                	slli	t1,t1,0xc
    2f02:	0000                	unimp
    2f04:	03c4                	addi	s1,sp,452
    2f06:	0000                	unimp
    2f08:	0332                	slli	t1,t1,0xc
	...

00002f0c <CSWTCH.43>:
    2f0c:	002f 0000 0000 0000 0000 0000 0000 0000     /...............
    2f1c:	000d 0000 0000 0000 0000 0000 0000 0000     ................
    2f2c:	0800 0000 0000 7f00 000a 0b15 0000 0000     ................
    2f3c:	001a 1900                                   ....

00002f40 <PS2Keymap_Japanese>:
	...
    2f4c:	0900 0000 0000 0000 7100 0031 0000 737a     .........q1...zs
    2f5c:	7761 0032 6300 6478 3465 0033 2000 6676     aw2..cxde43.. vf
    2f6c:	7274 0035 6e00 6862 7967 0036 0000 6a6d     tr5..nbhgy6...mj
    2f7c:	3775 0038 2c00 696b 306f 0039 2e00 6c2f     u78..,kio09.../l
    2f8c:	703b 002d 5c00 003a 5e40 0000 0000 5b0d     ;p-..\:.@^.....[
    2f9c:	5d00 0000 0000 0000 0000 007f 3100 345c     .]...........1\4
    2fac:	4937 004a 2e30 3532 3836 001b 2b00 2d33     7IJ.0.2568...+3-
    2fbc:	392a 0000 0000 0000 0000 0000 0000 0000     *9..............
	...
    2fd4:	0900 0000 0000 0000 5100 0021 0000 535a     .........Q!...ZS
    2fe4:	5741 0022 4300 4458 2445 0023 2000 4656     AW"..CXDE$#.. VF
    2ff4:	5254 0025 4e00 4842 5947 0026 0000 4a4d     TR%..NBHGY&...MJ
    3004:	2755 0028 3c00 494b 004f 0029 3e00 4c3f     U'(..<KIO.)..>?L
    3014:	502b 003d 5f00 002a 7e60 0000 0000 7b0d     +P=.._*.`~.....{
    3024:	7d00 0000 0000 0000 0000 007f 3100 347c     .}...........1|4
    3034:	0037 0000 2e30 3532 3836 001b 2b00 2d33     7...0.2568...+3-
    3044:	392a 0000 0000 0000 0000 0000 0000 0000     *9..............
	...
    30dc:	104a 0000 1040 0000 1038 0000 102e 0000     J...@...8.......
    30ec:	100e 0000 1056 0000 10fa 0000 1108 0000     ....V...........
    30fc:	11c6 0000 11c6 0000 110e 0000 11c6 0000     ................
    310c:	11c6 0000 11c6 0000 11c6 0000 11c6 0000     ................
    311c:	11c6 0000 11c6 0000 1122 0000 113e 0000     ........"...>...
    312c:	1160 0000 117c 0000 11c6 0000 11c6 0000     `...|...........
    313c:	11c6 0000 11c6 0000 11c6 0000 11a0 0000     ................
    314c:	10d4 0000 17d4 0000 177e 0000 1744 0000     ........~...D...
    315c:	172a 0000 1832 0000 1832 0000 16f0 0000     *...2...2.......
    316c:	16d2 0000 16ba 0000 16a2 0000 1696 0000     ................
    317c:	168a 0000 167e 0000 1832 0000 1674 0000     ....~...2...t...
    318c:	1832 0000 1832 0000 1832 0000 1832 0000     2...2...2...2...
    319c:	1832 0000 1832 0000 1832 0000 1832 0000     2...2...2...2...
    31ac:	1832 0000 1832 0000 1832 0000 1832 0000     2...2...2...2...
    31bc:	1668 0000 1832 0000 1832 0000 1832 0000     h...2...2...2...
    31cc:	165a 0000 165a 0000 165a 0000 165a 0000     Z...Z...Z...Z...
    31dc:	165a 0000 1832 0000 1648 0000 1c36 0000     Z...2...H...6...
    31ec:	1c50 0000 1c5a 0000 1be8 0000 1c00 0000     P...Z...........
    31fc:	4f54 4f59 4853 4b49 2049 4954 594e 4220     TOYOSHIKI TINY B
    320c:	5341 4349 0000 0000 4843 3233 3056 3330     ASIC....CH32V003
    321c:	0000 0000 4520 4944 4954 4e4f 0000 0000     .... EDITION....
    322c:	494c 454e 003a 0000 4f59 2055 5954 4550     LINE:...YOU TYPE
    323c:	203a 0000                                   : ..

00003240 <i_nsa>:
    3240:	0902 0f0d 1110 1312 1514 1716 1918 1b1a     ................
    3250:	1d1c 001e                                   ....

00003254 <i_nsb>:
    3254:	100f 1211 1413 1615 1817 1a19 0e0d 0027     ..............'.
    3264:	2840 0000 3a29 0000 4b4f 0000 6544 6976     @(..):..OK..Devi
    3274:	6973 6e6f 6220 2079 657a 6f72 0000 0000     sion by zero....
    3284:	764f 7265 6c66 776f 0000 0000 7553 7362     Overflow....Subs
    3294:	7263 7069 2074 756f 2074 666f 7220 6e61     cript out of ran
    32a4:	6567 0000 6349 646f 2065 7562 6666 7265     ge..Icode buffer
    32b4:	6620 6c75 006c 0000 694c 7473 6620 6c75      full...List ful
    32c4:	006c 0000 4f47 5553 2042 6f74 206f 616d     l...GOSUB too ma
    32d4:	796e 6e20 7365 6574 0064 0000 4552 5554     ny nested...RETU
    32e4:	4e52 7320 6174 6b63 7520 646e 7265 6c66     RN stack underfl
    32f4:	776f 0000 4f46 2052 6f74 206f 616d 796e     ow..FOR too many
    3304:	6e20 7365 6574 0064 454e 5458 7720 7469      nested.NEXT wit
    3314:	6f68 7475 4620 524f 0000 0000 454e 5458     hout FOR....NEXT
    3324:	7720 7469 6f68 7475 6320 756f 746e 7265      without counter
    3334:	0000 0000 454e 5458 6d20 7369 616d 6374     ....NEXT mismatc
    3344:	2068 4f46 0052 0000 4f46 2052 6977 6874     h FOR...FOR with
    3354:	756f 2074 6176 6972 6261 656c 0000 0000     out variable....
    3364:	4f46 2052 6977 6874 756f 2074 4f54 0000     FOR without TO..
    3374:	454c 2054 6977 6874 756f 2074 6176 6972     LET without vari
    3384:	6261 656c 0000 0000 4649 7720 7469 6f68     able....IF witho
    3394:	7475 6320 6e6f 6964 6974 6e6f 0000 0000     ut condition....
    33a4:	6e55 6564 6966 656e 2064 696c 656e 6e20     Undefined line n
    33b4:	6d75 6562 0072 0000 2827 2027 726f 2720     umber...'(' or '
    33c4:	2729 6520 7078 6365 6574 0064 3d27 2027     )' expected.'=' 
    33d4:	7865 6570 7463 6465 0000 0000 6c49 656c     expected....Ille
    33e4:	6167 206c 6f63 6d6d 6e61 0064 7953 746e     gal command.Synt
    33f4:	7861 6520 7272 726f 0000 0000 6e49 6574     ax error....Inte
    3404:	6e72 6c61 6520 7272 726f 0000 6241 726f     rnal error..Abor
    3414:	2074 7962 5b20 5345 5d43 0000 4f47 4f54     t by [ESC]..GOTO
    3424:	0000 0000 4f47 5553 0042 0000 4552 5554     ....GOSUB...RETU
    3434:	4e52 0000 4f46 0052 5453 5045 0000 0000     RN..FOR.STEP....
    3444:	454e 5458 0000 0000 4649 0000 4552 004d     NEXT....IF..REM.
    3454:	5453 504f 0000 0000 4e49 5550 0054 0000     STOP....INPUT...
    3464:	5250 4e49 0054 0000 454c 0054 002c 0000     PRINT...LET.,...
    3474:	003b 0000 002d 0000 002b 0000 002a 0000     ;...-...+...*...
    3484:	002f 0000 0028 0000 0029 0000 3d3e 0000     /...(...)...>=..
    3494:	0023 0000 003e 0000 003d 0000 3d3c 0000     #...>...=...<=..
    34a4:	003c 0000 0040 0000 4e52 0044 4241 0053     <...@...RND.ABS.
    34b4:	4953 455a 0000 0000 494c 5453 0000 0000     SIZE....LIST....
    34c4:	5552 004e 454e 0057 4153 4556 0000 0000     RUN.NEW.SAVE....
    34d4:	4f4c 4441 0000 0000                         LOAD....

000034dc <msxfont>:
	...
    34e4:	427e 427e 427e 0082 9210 1054 4428 0082     ~B~B~B....T.(D..
    34f4:	1412 14f8 5234 0092 1010 10fe 5438 0092     ....4R......8T..
    3504:	2810 927c 5438 00fe 1010 7c10 1010 00fe     .(|.8T.....|....
    3514:	427e 7e42 4242 007e 7e40 3c48 7e28 0008     ~BB~BB~.@~H<(~..
    3524:	92fe fe92 8282 0086 ee04 efa4 eaa2 0006     ................
    3534:	4428 3c82 2414 004c c828 ea5c c86c 0050     (D.<.$L.(.\.l.P.
    3544:	207c 447c 447c 007c 700c fe10 1010 0010     | |D|D|..p......
    3554:	107e 121e 4422 0008 7c00 2828 4e28 0000     ~..."D...|(((N..
    3564:	1010 ff10 0000 0000 0000 ff00 1010 1010     ................
    3574:	1010 f010 1010 1010 1010 1f10 1010 1010     ................
    3584:	1010 ff10 1010 1010 1010 1010 1010 1010     ................
    3594:	0000 ff00 0000 0000 0000 1f00 1010 1010     ................
    35a4:	0000 f000 1010 1010 1010 1f10 0000 0000     ................
    35b4:	1010 f010 0000 0000 4281 1824 2418 8142     .........B$..$B.
    35c4:	7c10 1010 4428 0082 1010 92fe 10fe 0010     .|..(D..........
    35d4:	1010 5454 1092 0030 0000 0000 0000 0000     ..TT..0.........
    35e4:	2020 2020 0000 0020 5050 0050 0000 0000         .. .PPP.....
    35f4:	5050 50f8 50f8 0050 7820 70a0 f028 0020     PP.P.PP. x.p(. .
    3604:	c8c0 2010 9840 0018 a040 a840 9890 0060     ... @...@.@...`.
    3614:	2010 0040 0000 0000 2010 4040 2040 0010     . @...... @@@ ..
    3624:	2040 1010 2010 0040 a820 2070 a870 0020     @ ... @. .p p. .
    3634:	2000 f820 2020 0000 0000 0000 2000 4020     .  .  .......  @
    3644:	0000 7800 0000 0000 0000 0000 6000 0060     ...x.........``.
    3654:	0000 1008 4020 0080 8870 a898 88c8 0070     .... @..p.....p.
    3664:	6020 20a0 2020 00f8 8870 1008 8060 00f8      `.   ..p...`...
    3674:	8870 3008 8808 0070 3010 9050 10f8 0010     p..0..p..0P.....
    3684:	80f8 10e0 1008 00e0 4030 f080 8888 0070     ........0@....p.
    3694:	88f8 2010 2020 0020 8870 7088 8888 0070     ...    .p..p..p.
    36a4:	8870 7888 1008 0060 0000 0020 2000 0000     p..x..`... .. ..
    36b4:	0000 0020 2000 4020 3018 c060 3060 0018     .. ..  @.0`.`0..
    36c4:	0000 00f8 00f8 0000 60c0 1830 6030 00c0     .........`0.0`..
    36d4:	8870 1008 0020 0020 8870 6808 a8a8 0070     p... . .p..h..p.
    36e4:	5020 8888 88f8 0088 48f0 7048 4848 00f0      P.......HHpHH..
    36f4:	4830 8080 4880 0030 50e0 4848 5048 00e0     0H...H0..PHHHP..
    3704:	80f8 f080 8080 00f8 80f8 f080 8080 0080     ................
    3714:	8870 b880 8888 0070 8888 f888 8888 0088     p.....p.........
    3724:	2070 2020 2020 0070 1038 1010 9090 0060     p     p.8.....`.
    3734:	9088 c0a0 90a0 0088 8080 8080 8080 00f8     ................
    3744:	d888 a8a8 8888 0088 c888 a8c8 9898 0088     ................
    3754:	8870 8888 8888 0070 88f0 f088 8080 0080     p.....p.........
    3764:	8870 8888 90a8 0068 88f0 f088 90a0 0088     p.....h.........
    3774:	8870 7080 8808 0070 20f8 2020 2020 0020     p..p..p..      .
    3784:	8888 8888 8888 0070 8888 8888 5050 0020     ......p.....PP .
    3794:	8888 a888 d8a8 0088 8888 2050 8850 0088     ..........P P...
    37a4:	8888 7088 2020 0020 08f8 2010 8040 00f8     ...p   .... @...
    37b4:	4070 4040 4040 0070 5088 7020 7020 0020     p@@@@@p..P p p .
    37c4:	1070 1010 1010 0070 5020 0088 0000 0000     p.....p. P......
    37d4:	0000 0000 0000 00f8 2040 0010 0000 0000     ........@ ......
    37e4:	0000 0870 8878 0078 8080 c8b0 c888 00b0     ..p.x.x.........
    37f4:	0000 8870 8880 0070 0808 9868 9888 0068     ..p...p...h...h.
    3804:	0000 8870 80f8 0070 2810 f820 2020 0020     ..p...p..( .   .
    3814:	0000 9868 6898 7008 8080 88f0 8888 0088     ..h..h.p........
    3824:	0020 2060 2020 0070 0010 1030 1010 6090      .`   p...0....`
    3834:	4040 5048 5060 0048 2060 2020 2020 0070     @@HP`PH.`     p.
    3844:	0000 a8d0 a8a8 00a8 0000 c8b0 8888 0088     ................
    3854:	0000 8870 8888 0070 0000 c8b0 b0c8 8080     ..p...p.........
    3864:	0000 9868 6898 0808 0000 c8b0 8080 0080     ..h..h..........
    3874:	0000 8078 08f0 00f0 4040 40f0 4840 0030     ..x.....@@.@@H0.
    3884:	0000 9090 9090 0068 0000 8888 5088 0020     ......h......P .
    3894:	0000 a888 a8a8 0050 0000 5088 5020 0088     ......P....P P..
    38a4:	0000 8888 6898 7008 0000 10f8 4020 00f8     .....h.p.... @..
    38b4:	2018 4020 2020 0018 2020 0020 2020 0020     .  @  ..   .   .
    38c4:	20c0 1020 2020 00c0 a840 0010 0000 0000     .  .  ..@.......
	...
    38dc:	3810 fe7c 38fe 007c fe6c fefe 387c 0010     .8|..8|.l...|8..
    38ec:	3838 fefe 10d6 007c 3810 fe7c 387c 0010     88....|..8|.|8..
    38fc:	7800 8484 8484 0078 7800 fcfc fcfc 0078     .x....x..x....x.
    390c:	f020 704c 40a8 003c 2000 2078 b478 0064      .Lp.@<.. x x.d.
    391c:	0000 8488 8484 0040 7000 7000 0888 0030     ......@..p.p..0.
    392c:	7000 f000 6020 0098 2000 24f8 a478 0068     .p.. `... .$x.h.
    393c:	9000 6458 20a8 0010 1000 d4b8 1894 0020     ..Xd. ........ .
    394c:	1000 101c 9870 0074 0000 7800 0404 0038     ....p.t....x..8.
	...
    3964:	7c20 7c20 92aa 0064 8400 8282 8082 0040      | |..d.......@.
    3974:	0038 4438 0804 0030 0070 10f8 6020 009c     8.8D..0.p... `..
    3984:	fa24 7c20 a2a2 0044 4440 4af2 8848 0030     $. |..D.@D.JH.0.
    3994:	fc20 fc10 8008 0078 1008 4020 1020 0008      .....x... @ ...
    39a4:	8404 849e 8484 0048 0478 0000 8000 007c     ......H.x.....|.
    39b4:	fe10 0408 8004 0078 8080 8080 8884 0070     ......x.......p.
    39c4:	fe08 4838 0838 0010 4444 44fe 4048 003c     ..8H8...DD.DH@<.
    39d4:	2844 20fe 4040 003c 0000 0000 0000 0000     D(. @@<.........
    39e4:	0000 0000 9060 0060 2038 2020 0000 0000     ....`.`.8   ....
    39f4:	0000 2000 2020 00e0 0000 0000 4080 0020     ...   .......@ .
    3a04:	0000 3000 0030 0000 08f8 08f8 2010 0040     ...00........ @.
    3a14:	0000 10f0 4060 0080 1000 6020 20a0 0020     ....`@.... `.  .
    3a24:	2000 90f0 2010 0040 0000 20f0 2020 00f0     . ... @....   ..
    3a34:	2000 60f0 a0a0 0020 4000 48f8 4050 0040     . .`.. ..@.HP@@.
    3a44:	0000 1070 1010 00f8 0000 10f0 10f0 00f0     ..p.............
    3a54:	0000 a8a8 1008 0020 0000 7c80 0000 0000     ...... ....|....
    3a64:	08f8 3028 2020 0040 1008 6020 20a0 0020     ..(0  @... `.  .
    3a74:	f820 8888 1008 0020 f800 2020 2020 00f8      ..... ...    ..
    3a84:	f810 3010 9050 0010 f820 2828 4828 0088     ...0P... .(((H..
    3a94:	f820 f820 2020 0020 4878 0888 1008 0020      . .   .xH.... .
    3aa4:	7840 9050 1010 0020 f800 0808 0808 00f8     @xP... .........
    3ab4:	f850 5050 1010 0020 c000 c808 1008 00e0     P.PP.. .........
    3ac4:	f800 1008 5020 0088 f840 5048 4040 0038     .... P..@.HP@@8.
    3ad4:	8888 0848 2010 0040 4878 8878 1008 0020     ..H.. @.xHx... .
    3ae4:	e010 f820 2020 0040 a8a8 08a8 1008 0020     .. .  @....... .
    3af4:	0070 20f8 2020 0040 4040 5060 4048 0040     p..   @.@@`PH@@.
    3b04:	f820 2020 2020 0040 7000 0000 0000 00f8      .    @..p......
    3b14:	f800 d008 5020 0088 f820 3008 20e8 0020     .... P.. ..0.  .
    3b24:	0808 1008 4020 0080 1020 4848 4848 0088     .... @.. .HHHH..
    3b34:	8080 80f8 8080 0078 08f8 0808 2010 0040     ......x...... @.
    3b44:	4000 10a0 0808 0000 f820 2020 a8a8 0020     .@...... .  .. .
    3b54:	f800 0808 2050 0010 00f0 0060 f000 0008     ....P ....`.....
    3b64:	2010 8040 8890 00f8 0808 5008 5020 0080     . @........P P..
    3b74:	2078 20f8 2020 0018 f840 4848 4050 0040     x .   ..@.HHP@@.
    3b84:	7000 1010 1010 00f8 f800 f808 0808 00f8     .p..............
    3b94:	0070 08f8 1008 0020 4848 4848 1048 0020     p..... .HHHHH. .
    3ba4:	5010 5050 5850 0090 4040 4840 5048 0060     .PPPPX..@@@HHP`.
    3bb4:	f800 8888 8888 00f8 88f8 0888 1008 0020     .............. .
    3bc4:	c000 0800 1008 00e0 4890 0000 0000 0000     .........H......
    3bd4:	9060 0060 0000 0000 f820 4e20 9040 008e     `.`..... . N@...
    3be4:	fe10 7820 0404 0078 fc00 0202 0402 0018     .. x..x.........
    3bf4:	08fe 2010 2020 001c 2420 6038 8080 007c     ...   .. $8`..|.
    3c04:	f22c 4444 269c 001c 9e00 8080 9080 004e     ,.DD.&........N.
    3c14:	4848 d27c aab6 004c 4c40 62d2 d24e 004e     HH|...L.@L.bN.N.
    3c24:	3800 9254 a2a2 0044 9e04 8484 968c 004c     .8T...D.......L.
    3c34:	e410 4426 4844 0030 1020 2000 5214 00b2     ..&DDH0. .. .R..
    3c44:	0000 5020 0488 0002 841e 849e 968c 004c     .. P..........L.
    3c54:	fc10 fc10 9870 0074 1070 7e14 a4a4 0048     ....p.t.p..~..H.
    3c64:	f420 6022 62a2 001c 4848 aa7c a292 0044      ."`.b..HH|...D.
    3c74:	f820 f820 2420 0018 5c48 e26a 1024 0010      . . $..H\j.$...
    3c84:	9c10 d2b2 1c92 0020 1c10 1010 9478 0070     ...... .....x.p.
    3c94:	1060 b880 84c4 0038 8408 8484 0844 0030     `.....8.....D.0.
    3ca4:	1078 4438 4cb4 0038 2c20 24f4 a464 0026     x.8D.L8. ,.$d.&.
    3cb4:	1078 7820 0484 0038 4040 62dc c242 0044     x. x..8.@@.bB.D.
    3cc4:	1010 2020 5260 008c 0000 0000 0000 0000     ..  `R..........
	...
    3ce0:	7f2d 4c95 f42d 5851                         -..L-.QX
