
TinyBASIC.elf:     file format elf32-littleriscv
TinyBASIC.elf
architecture: riscv:rv32, flags 0x00000112:
EXEC_P, HAS_SYMS, D_PAGED
start address 0x00000000

Program Header:
    LOAD off    0x00001000 vaddr 0x00000000 paddr 0x00000000 align 2**12
         filesz 0x000035a0 memsz 0x000035a0 flags r-x
    LOAD off    0x00005000 vaddr 0x20000000 paddr 0x000035a0 align 2**12
         filesz 0x00000158 memsz 0x00000518 flags rw-
    LOAD off    0x00005700 vaddr 0x20000700 paddr 0x20000700 align 2**12
         filesz 0x00000000 memsz 0x00000100 flags rw-

Sections:
Idx Name          Size      VMA       LMA       File off  Algn
  0 .init         000000a0  00000000  00000000  00001000  2**2
                  CONTENTS, ALLOC, LOAD, READONLY, CODE
  1 .text         00003500  000000a0  000000a0  000010a0  2**3
                  CONTENTS, ALLOC, LOAD, READONLY, CODE
  2 .fini         00000000  000035a0  000035a0  00005158  2**0
                  CONTENTS, ALLOC, LOAD, CODE
  3 .dalign       00000000  20000000  20000000  00005158  2**0
                  CONTENTS
  4 .dlalign      00000000  000035a0  000035a0  00005158  2**0
                  CONTENTS
  5 .data         00000158  20000000  000035a0  00005000  2**2
                  CONTENTS, ALLOC, LOAD, DATA
  6 .bss          000003c0  20000158  000036f8  00005158  2**2
                  ALLOC
  7 .stack        00000100  20000700  20000700  00005700  2**0
                  ALLOC
  8 .debug_info   00010230  00000000  00000000  00005158  2**0
                  CONTENTS, READONLY, DEBUGGING
  9 .debug_abbrev 00002e3a  00000000  00000000  00015388  2**0
                  CONTENTS, READONLY, DEBUGGING
 10 .debug_loc    00004c6f  00000000  00000000  000181c2  2**0
                  CONTENTS, READONLY, DEBUGGING
 11 .debug_aranges 00000960  00000000  00000000  0001ce38  2**3
                  CONTENTS, READONLY, DEBUGGING
 12 .debug_ranges 00000a20  00000000  00000000  0001d798  2**3
                  CONTENTS, READONLY, DEBUGGING
 13 .debug_line   0000dbad  00000000  00000000  0001e1b8  2**0
                  CONTENTS, READONLY, DEBUGGING
 14 .debug_str    00002da4  00000000  00000000  0002bd65  2**0
                  CONTENTS, READONLY, DEBUGGING
 15 .comment      00000033  00000000  00000000  0002eb09  2**0
                  CONTENTS, READONLY
 16 .debug_frame  00001830  00000000  00000000  0002eb3c  2**2
                  CONTENTS, READONLY, DEBUGGING
SYMBOL TABLE:
00000000 l    d  .init	00000000 .init
000000a0 l    d  .text	00000000 .text
000035a0 l    d  .fini	00000000 .fini
20000000 l    d  .dalign	00000000 .dalign
000035a0 l    d  .dlalign	00000000 .dlalign
20000000 l    d  .data	00000000 .data
20000158 l    d  .bss	00000000 .bss
20000700 l    d  .stack	00000000 .stack
00000000 l    d  .debug_info	00000000 .debug_info
00000000 l    d  .debug_abbrev	00000000 .debug_abbrev
00000000 l    d  .debug_loc	00000000 .debug_loc
00000000 l    d  .debug_aranges	00000000 .debug_aranges
00000000 l    d  .debug_ranges	00000000 .debug_ranges
00000000 l    d  .debug_line	00000000 .debug_line
00000000 l    d  .debug_str	00000000 .debug_str
00000000 l    d  .comment	00000000 .comment
00000000 l    d  .debug_frame	00000000 .debug_frame
00000000 l    df *ABS*	00000000 PS2Keyboard.c
000001f2 l     F .text	000001ec get_iso8859_code
20000160 l     O .bss	00000001 CapsLock
20000161 l     O .bss	00000001 CharBuffer
20000162 l     O .bss	00000001 UTF8next
20000163 l     O .bss	00000001 bitcount.4041
20000164 l     O .bss	00000010 buffer
20000174 l     O .bss	00000001 head
20000175 l     O .bss	00000001 incoming.4042
20000178 l     O .bss	00000004 keymap
2000017c l     O .bss	00000004 prev_ms.4043
20000180 l     O .bss	00000001 state.4057
20000181 l     O .bss	00000001 tail
000027c4 l     O .text	00000034 CSWTCH.43
00000000 l    df *ABS*	00000000 basic.c
00000000 l    df *ABS*	00000000 ch32v00x_it.c
00000000 l    df *ABS*	00000000 main.c
00001934 l     F .text	00000028 video_scroll
00000000 l    df *ABS*	00000000 system_ch32v00x.c
00000000 l    df *ABS*	00000000 ch32v00x_dma.c
00000000 l    df *ABS*	00000000 ch32v00x_exti.c
00000000 l    df *ABS*	00000000 ch32v00x_flash.c
00000000 l    df *ABS*	00000000 ch32v00x_gpio.c
00000000 l    df *ABS*	00000000 ch32v00x_misc.c
00000000 l    df *ABS*	00000000 ch32v00x_rcc.c
00000000 l    df *ABS*	00000000 ch32v00x_spi.c
00000000 l    df *ABS*	00000000 ch32v00x_tim.c
00000000 l    df *ABS*	00000000 debug.c
200000ec l     O .data	00000004 curbrk.4059
00000000 l    df *ABS*	00000000 malloc.c
00000000 l    df *ABS*	00000000 memmove.c
00000000 l    df *ABS*	00000000 nano-mallocr.c
00000000 l    df *ABS*	00000000 random.c
00000000 l    df *ABS*	00000000 sbrkr.c
00000000 l    df *ABS*	00000000 mlock.c
00000000 l    df *ABS*	00000000 multi3.c
00000000 l    df *ABS*	00000000 impure.c
200000f0 l     O .data	00000060 impure_data
00000000 l    df *ABS*	00000000 reent.c
00000bb0 g     F .text	00000028 getlp
00001f9e g     F .text	00000014 DMA_Cmd
20000184 g     O .bss	00000040 arr
200001ec g     O .bss	00000050 ibuf
20000950 g       .data	00000000 __global_pointer$
000026b6 g     F .text	00000074 random
00001bb8 g     F .text	00000138 TIM1_CC_IRQHandler
00001932 g     F .text	00000002 HardFault_Handler
00002756 g     F .text	00000002 __malloc_unlock
00000518 g     F .text	00000092 kbd_init
00001e26  w      .text	00000000 SysTick_Handler
000020a2 g     F .text	00000036 FLASH_BufLoad
000005ec g     F .text	00000018 c_isspace
0000224a g     F .text	000000a6 NVIC_Init
00001e2c  w      .text	00000000 PVD_IRQHandler
0000259c g     F .text	00000046 memmove
0000192e g     F .text	00000004 NMI_Handler
00000e4a g     F .text	0000003a getparam
0000210e g     F .text	00000034 FLASH_ProgramPage_Fast
000016bc g     F .text	0000003a inew
20000514 g     O .bss	00000004 errno
20000158 g       .bss	00000000 _sbss
00000100 g       *ABS*	00000000 __stack_size
000005d0 g     F .text	0000001c c_toupper
00001f66 g     F .text	00000038 DMA_Init
000000aa g     F .text	0000000a .hidden __riscv_restore_2
00000c86 g     F .text	0000014c putlist
000024f2 g     F .text	00000016 TIM_CtrlPWMOutputs
20000501 g     O .bss	00000001 cursor_y
00002b0c g     O .text	0000000f i_nsb
000024da g     F .text	00000018 TIM_Cmd
000018c6 g     F .text	00000068 basic
00002542 g     F .text	00000016 TIM_OC4PreloadConfig
0000258e g     F .text	0000000e malloc
0000255c g     F .text	0000000c TIM_ClearFlag
000000d4 g     F .text	0000002c .hidden __udivsi3
000000a0 g       .init	00000000 _einit
20000000 g     O .data	0000005c errmsg
00002052 g     F .text	0000001e FLASH_Unlock_Fast
0000230e g     F .text	0000001e RCC_APB2PeriphClockCmd
00000616 g     F .text	0000001a c_puts
00002142 g     F .text	000000d6 GPIO_Init
0000120c g     F .text	0000003c ivar
00000b7c g     F .text	0000001c getsize
20000510 g     O .bss	00000004 NVIC_Priority_Group
00001e4c  w      .text	00000000 SPI1_IRQHandler
0000272a g     F .text	0000002a _sbrk_r
00000dd2 g     F .text	00000078 iexp
000000a0 g     F .text	0000000a .hidden __riscv_save_1
000000aa g     F .text	0000000a .hidden __riscv_restore_0
00001e34  w      .text	00000000 AWU_IRQHandler
000023d8 g     F .text	00000094 TIM_OC3Init
000003de g     F .text	000000c8 EXTI7_0_IRQHandler
200001d0 g     O .bss	00000018 gstk
20000700 g       .stack	00000000 _heap_end
000005aa g     F .text	00000026 sstyle
00000bd8 g     F .text	000000ae inslist
000022f0 g     F .text	0000001e RCC_AHBPeriphClockCmd
00001e3c  w      .text	00000000 DMA1_Channel4_IRQHandler
00001e44  w      .text	00000000 ADC1_IRQHandler
00002568 g     F .text	00000026 _sbrk
00002044 g     F .text	0000000e FLASH_Lock
00001ad0 g     F .text	0000006c video_putch
0000203a g     F .text	0000000a EXTI_ClearITPendingBit
20000518 g       .bss	00000000 _ebss
00001e42  w      .text	00000000 DMA1_Channel7_IRQHandler
00002534 g     F .text	0000000e TIM_OC3PreloadConfig
2000048c g     O .bss	0000003c lstk
00002af8 g     O .text	00000013 i_nsa
000027f8 g     O .text	00000199 PS2Keymap_Japanese
0000251a g     F .text	0000001a TIM_ARRPreloadConfig
00000100 g     F .text	00000008 .hidden __umodsi3
00001e46  w      .text	00000000 I2C1_EV_IRQHandler
000010f4 g     F .text	00000118 iinput
00001e40  w      .text	00000000 DMA1_Channel6_IRQHandler
00000f9c g     F .text	0000005c imul
00000604 g     F .text	00000012 c_isalpha
20000502 g     O .bss	00000002 ntsc_line
00001e30  w      .text	00000000 RCC_IRQHandler
00001e52  w      .text	00000000 TIM1_TRG_COM_IRQHandler
00001e36  w      .text	00000000 DMA1_Channel1_IRQHandler
00000000 g       .init	00000000 _start
00002508 g     F .text	00000012 TIM_ITConfig
0000160c g     F .text	00000034 irun
00001fb2 g     F .text	0000006a EXTI_Init
000000b4 g     F .text	00000014 .hidden __mulsi3
00001640 g     F .text	0000007c ilist
000020d8 g     F .text	00000036 FLASH_ErasePage_Fast
20000000 g       .dalign	00000000 _data_vma
0000246c g     F .text	0000006e TIM_OC4Init
00002222 g     F .text	00000022 GPIO_EXTILineConfig
00002d94 g     O .text	00000800 msxfont
00002754 g     F .text	00000002 __malloc_lock
0000201c g     F .text	0000001e EXTI_GetITStatus
200001c4 g     O .bss	00000004 cip
0000014a g     F .text	000000a8 memset
00001b62 g     F .text	00000056 DMA_Tx_Init
200001cc g     O .bss	00000001 err
000008a4 g     F .text	000002d8 toktoi
00001cf0 g     F .text	00000034 main
000006ee g     F .text	000000aa putnum
000017b0 g     F .text	00000088 icom
200001c8 g     O .bss	00000004 clp
0000178c g     F .text	00000024 iload
20000504 g     O .bss	00000008 scandata
00002378 g     F .text	00000012 SPI_I2S_DMACmd
000025e2 g     F .text	000000d4 _malloc_r
00001290 g     F .text	00000034 ilet
2000028c g     O .bss	00000200 listbuf
000016f6 g     F .text	00000096 isave
2000005c g     O .data	00000090 kwtbl
00001e3e  w      .text	00000000 DMA1_Channel5_IRQHandler
00000b98 g     F .text	00000018 getlineno
000000cc g     F .text	00000058 .hidden __divsi3
00000e84 g     F .text	00000118 ivalue
00002558 g     F .text	00000004 TIM_SetCompare4
0000235e g     F .text	0000001a SPI_Cmd
0000103a g     F .text	000000ba iprint
200001e8 g     O .bss	00000001 gstki
00001d24 g     F .text	000000fe SystemInit
2000023c g     O .bss	00000050 lbuf
00000000 g       .init	00000000 _sinit
0000207a g     F .text	00000028 FLASH_BufReset
00001e3a  w      .text	00000000 DMA1_Channel3_IRQHandler
20000150 g     O .data	00000004 _impure_ptr
00001838 g     F .text	0000008e error
00001e50  w      .text	00000000 TIM1_UP_IRQHandler
00001e2a  w      .text	00000000 WWDG_IRQHandler
000004c8 g     F .text	00000050 kbd_read
200004cc g     O .bss	00000034 var
00001e56  w      .text	00000000 TIM2_IRQHandler
200004c8 g     O .bss	00000001 lstki
20000800 g       .stack	00000000 _eusrstack
000000a0 g     F .text	0000000a .hidden __riscv_save_2
00001e28  w      .text	00000000 SW_Handler
00002070 g     F .text	0000000a FLASH_Lock_Fast
00001e4e  w      .text	00000000 TIM1_BRK_IRQHandler
20000500 g     O .bss	00000001 cursor_x
20000158 g       .data	00000000 _edata
00000798 g     F .text	0000010c getnum
20000518 g       .bss	00000000 _end
00000ff8 g     F .text	00000042 iplus
0000238a g     F .text	0000004e TIM_TimeBaseInit
000035a0 g       .dlalign	00000000 _data_lma
000004a6 g     F .text	00000022 kbd_available
00000124 g     F .text	00000024 .hidden __modsi3
2000050c g     O .bss	00000004 vram
00001e38  w      .text	00000000 DMA1_Channel2_IRQHandler
00001248 g     F .text	00000048 iarray
00001b3c g     F .text	00000026 video_newline
00001e58  w      .text	00000000 handle_reset
00001e2e  w      .text	00000000 FLASH_IRQHandler
000000a0 g     F .text	0000000a .hidden __riscv_save_0
00002758 g     F .text	0000006a .hidden __muldi3
00001e4a  w      .text	00000000 USART1_IRQHandler
000012c4 g     F .text	00000348 iexe
2000015c g     O .bss	00000004 __malloc_sbrk_start
00001e48  w      .text	00000000 I2C1_ER_IRQHandler
0000232c g     F .text	00000032 SPI_Init
00002244 g     F .text	00000006 NVIC_PriorityGroupConfig
00001ed4 g     F .text	00000092 DMA_DeInit
00000630 g     F .text	000000be c_gets
20000158 g     O .bss	00000004 __malloc_free_list
000000aa g     F .text	0000000a .hidden __riscv_restore_1
0000195c g     F .text	00000174 video_init
00002218 g     F .text	0000000a GPIO_ReadInputDataBit



Disassembly of section .init:

00000000 <_sinit>:
   0:	6590106f          	j	1e58 <handle_reset>
   4:	0000                	unimp
   6:	0000                	unimp
   8:	192e                	slli	s2,s2,0x2b
   a:	0000                	unimp
   c:	1932                	slli	s2,s2,0x2c
	...
  2e:	0000                	unimp
  30:	1e26                	slli	t3,t3,0x29
  32:	0000                	unimp
  34:	0000                	unimp
  36:	0000                	unimp
  38:	1e28                	addi	a0,sp,824
  3a:	0000                	unimp
  3c:	0000                	unimp
  3e:	0000                	unimp
  40:	1e2a                	slli	t3,t3,0x2a
  42:	0000                	unimp
  44:	1e2c                	addi	a1,sp,824
  46:	0000                	unimp
  48:	1e2e                	slli	t3,t3,0x2b
  4a:	0000                	unimp
  4c:	1e30                	addi	a2,sp,824
  4e:	0000                	unimp
  50:	03de                	slli	t2,t2,0x17
  52:	0000                	unimp
  54:	1e34                	addi	a3,sp,824
  56:	0000                	unimp
  58:	1e36                	slli	t3,t3,0x2d
  5a:	0000                	unimp
  5c:	1e38                	addi	a4,sp,824
  5e:	0000                	unimp
  60:	1e3a                	slli	t3,t3,0x2e
  62:	0000                	unimp
  64:	1e3c                	addi	a5,sp,824
  66:	0000                	unimp
  68:	1e3e                	slli	t3,t3,0x2f
  6a:	0000                	unimp
  6c:	1e40                	addi	s0,sp,820
  6e:	0000                	unimp
  70:	1e42                	slli	t3,t3,0x30
  72:	0000                	unimp
  74:	1e44                	addi	s1,sp,820
  76:	0000                	unimp
  78:	1e46                	slli	t3,t3,0x31
  7a:	0000                	unimp
  7c:	1e48                	addi	a0,sp,820
  7e:	0000                	unimp
  80:	1e4a                	slli	t3,t3,0x32
  82:	0000                	unimp
  84:	1e4c                	addi	a1,sp,820
  86:	0000                	unimp
  88:	1e4e                	slli	t3,t3,0x33
  8a:	0000                	unimp
  8c:	1e50                	addi	a2,sp,820
  8e:	0000                	unimp
  90:	1e52                	slli	t3,t3,0x34
  92:	0000                	unimp
  94:	1bb8                	addi	a4,sp,504
  96:	0000                	unimp
  98:	1e56                	slli	t3,t3,0x35
  9a:	0000                	unimp
  9c:	0000                	unimp
	...

Disassembly of section .text:

000000a0 <__riscv_save_0>:
      a0:	1151                	addi	sp,sp,-12
      a2:	c026                	sw	s1,0(sp)
      a4:	c222                	sw	s0,4(sp)
      a6:	c406                	sw	ra,8(sp)
      a8:	8282                	jr	t0

000000aa <__riscv_restore_0>:
      aa:	4482                	lw	s1,0(sp)
      ac:	4412                	lw	s0,4(sp)
      ae:	40a2                	lw	ra,8(sp)
      b0:	0131                	addi	sp,sp,12
      b2:	8082                	ret

000000b4 <__mulsi3>:
      b4:	862a                	mv	a2,a0
      b6:	4501                	li	a0,0
      b8:	0015f693          	andi	a3,a1,1
      bc:	c291                	beqz	a3,c0 <__mulsi3+0xc>
      be:	9532                	add	a0,a0,a2
      c0:	8185                	srli	a1,a1,0x1
      c2:	0606                	slli	a2,a2,0x1
      c4:	f9f5                	bnez	a1,b8 <__mulsi3+0x4>
      c6:	8082                	ret
      c8:	0000                	unimp
	...

000000cc <__divsi3>:
      cc:	02054e63          	bltz	a0,108 <__umodsi3+0x8>
      d0:	0405c363          	bltz	a1,116 <__umodsi3+0x16>

000000d4 <__udivsi3>:
      d4:	862e                	mv	a2,a1
      d6:	85aa                	mv	a1,a0
      d8:	557d                	li	a0,-1
      da:	c215                	beqz	a2,fe <__udivsi3+0x2a>
      dc:	4685                	li	a3,1
      de:	00b67863          	bgeu	a2,a1,ee <__udivsi3+0x1a>
      e2:	00c05663          	blez	a2,ee <__udivsi3+0x1a>
      e6:	0606                	slli	a2,a2,0x1
      e8:	0686                	slli	a3,a3,0x1
      ea:	feb66ce3          	bltu	a2,a1,e2 <__udivsi3+0xe>
      ee:	4501                	li	a0,0
      f0:	00c5e463          	bltu	a1,a2,f8 <__udivsi3+0x24>
      f4:	8d91                	sub	a1,a1,a2
      f6:	8d55                	or	a0,a0,a3
      f8:	8285                	srli	a3,a3,0x1
      fa:	8205                	srli	a2,a2,0x1
      fc:	faf5                	bnez	a3,f0 <__udivsi3+0x1c>
      fe:	8082                	ret

00000100 <__umodsi3>:
     100:	8286                	mv	t0,ra
     102:	3fc9                	jal	d4 <__udivsi3>
     104:	852e                	mv	a0,a1
     106:	8282                	jr	t0
     108:	40a00533          	neg	a0,a0
     10c:	0005d763          	bgez	a1,11a <__umodsi3+0x1a>
     110:	40b005b3          	neg	a1,a1
     114:	b7c1                	j	d4 <__udivsi3>
     116:	40b005b3          	neg	a1,a1
     11a:	8286                	mv	t0,ra
     11c:	3f65                	jal	d4 <__udivsi3>
     11e:	40a00533          	neg	a0,a0
     122:	8282                	jr	t0

00000124 <__modsi3>:
     124:	8286                	mv	t0,ra
     126:	0005c763          	bltz	a1,134 <__modsi3+0x10>
     12a:	00054963          	bltz	a0,13c <__modsi3+0x18>
     12e:	375d                	jal	d4 <__udivsi3>
     130:	852e                	mv	a0,a1
     132:	8282                	jr	t0
     134:	40b005b3          	neg	a1,a1
     138:	fe055be3          	bgez	a0,12e <__modsi3+0xa>
     13c:	40a00533          	neg	a0,a0
     140:	3f51                	jal	d4 <__udivsi3>
     142:	40b00533          	neg	a0,a1
     146:	8282                	jr	t0
	...

0000014a <memset>:
     14a:	433d                	li	t1,15
     14c:	872a                	mv	a4,a0
     14e:	02c37363          	bgeu	t1,a2,174 <memset+0x2a>
     152:	00f77793          	andi	a5,a4,15
     156:	efbd                	bnez	a5,1d4 <memset+0x8a>
     158:	e5ad                	bnez	a1,1c2 <memset+0x78>
     15a:	ff067693          	andi	a3,a2,-16
     15e:	8a3d                	andi	a2,a2,15
     160:	96ba                	add	a3,a3,a4
     162:	c30c                	sw	a1,0(a4)
     164:	c34c                	sw	a1,4(a4)
     166:	c70c                	sw	a1,8(a4)
     168:	c74c                	sw	a1,12(a4)
     16a:	0741                	addi	a4,a4,16
     16c:	fed76be3          	bltu	a4,a3,162 <memset+0x18>
     170:	e211                	bnez	a2,174 <memset+0x2a>
     172:	8082                	ret
     174:	40c306b3          	sub	a3,t1,a2
     178:	068a                	slli	a3,a3,0x2
     17a:	00000297          	auipc	t0,0x0
     17e:	9696                	add	a3,a3,t0
     180:	00a68067          	jr	10(a3)
     184:	00b70723          	sb	a1,14(a4)
     188:	00b706a3          	sb	a1,13(a4)
     18c:	00b70623          	sb	a1,12(a4)
     190:	00b705a3          	sb	a1,11(a4)
     194:	00b70523          	sb	a1,10(a4)
     198:	00b704a3          	sb	a1,9(a4)
     19c:	00b70423          	sb	a1,8(a4)
     1a0:	00b703a3          	sb	a1,7(a4)
     1a4:	00b70323          	sb	a1,6(a4)
     1a8:	00b702a3          	sb	a1,5(a4)
     1ac:	00b70223          	sb	a1,4(a4)
     1b0:	00b701a3          	sb	a1,3(a4)
     1b4:	00b70123          	sb	a1,2(a4)
     1b8:	00b700a3          	sb	a1,1(a4)
     1bc:	00b70023          	sb	a1,0(a4)
     1c0:	8082                	ret
     1c2:	0ff5f593          	andi	a1,a1,255
     1c6:	00859693          	slli	a3,a1,0x8
     1ca:	8dd5                	or	a1,a1,a3
     1cc:	01059693          	slli	a3,a1,0x10
     1d0:	8dd5                	or	a1,a1,a3
     1d2:	b761                	j	15a <memset+0x10>
     1d4:	00279693          	slli	a3,a5,0x2
     1d8:	00000297          	auipc	t0,0x0
     1dc:	9696                	add	a3,a3,t0
     1de:	8286                	mv	t0,ra
     1e0:	fa8680e7          	jalr	-88(a3)
     1e4:	8096                	mv	ra,t0
     1e6:	17c1                	addi	a5,a5,-16
     1e8:	8f1d                	sub	a4,a4,a5
     1ea:	963e                	add	a2,a2,a5
     1ec:	f8c374e3          	bgeu	t1,a2,174 <memset+0x2a>
     1f0:	b7a5                	j	158 <memset+0xe>

000001f2 <get_iso8859_code>:
     1f2:	8281a383          	lw	t2,-2008(gp) # 20000178 <keymap>
     1f6:	1141                	addi	sp,sp,-16
     1f8:	81418793          	addi	a5,gp,-2028 # 20000164 <buffer>
     1fc:	c03e                	sw	a5,0(sp)
     1fe:	6789                	lui	a5,0x2
     200:	7c478793          	addi	a5,a5,1988 # 27c4 <CSWTCH.43>
     204:	c622                	sw	s0,12(sp)
     206:	8101c603          	lbu	a2,-2032(gp) # 20000160 <CapsLock>
     20a:	8301c703          	lbu	a4,-2000(gp) # 20000180 <state.4057>
     20e:	c426                	sw	s1,8(sp)
     210:	4281                	li	t0,0
     212:	4501                	li	a0,0
     214:	81018593          	addi	a1,gp,-2032 # 20000160 <CapsLock>
     218:	83018313          	addi	t1,gp,-2000 # 20000180 <state.4057>
     21c:	c23e                	sw	a5,4(sp)
     21e:	83118793          	addi	a5,gp,-1999 # 20000181 <tail>
     222:	2394                	lbu	a3,0(a5)
     224:	82418793          	addi	a5,gp,-2012 # 20000174 <head>
     228:	239c                	lbu	a5,0(a5)
     22a:	0ff6f693          	andi	a3,a3,255
     22e:	83118493          	addi	s1,gp,-1999 # 20000181 <tail>
     232:	00f69d63          	bne	a3,a5,24c <get_iso8859_code+0x5a>
     236:	c119                	beqz	a0,23c <get_iso8859_code+0x4a>
     238:	00e30023          	sb	a4,0(t1)
     23c:	00028363          	beqz	t0,242 <get_iso8859_code+0x50>
     240:	a190                	sb	a2,0(a1)
     242:	4501                	li	a0,0
     244:	4432                	lw	s0,12(sp)
     246:	44a2                	lw	s1,8(sp)
     248:	0141                	addi	sp,sp,16
     24a:	8082                	ret
     24c:	0685                	addi	a3,a3,1
     24e:	0ff6f693          	andi	a3,a3,255
     252:	47bd                	li	a5,15
     254:	00d7f363          	bgeu	a5,a3,25a <get_iso8859_code+0x68>
     258:	4681                	li	a3,0
     25a:	4782                	lw	a5,0(sp)
     25c:	97b6                	add	a5,a5,a3
     25e:	239c                	lbu	a5,0(a5)
     260:	a094                	sb	a3,0(s1)
     262:	0ff7f793          	andi	a5,a5,255
     266:	dbe1                	beqz	a5,236 <get_iso8859_code+0x44>
     268:	0f000693          	li	a3,240
     26c:	00d79663          	bne	a5,a3,278 <get_iso8859_code+0x86>
     270:	00176713          	ori	a4,a4,1
     274:	4505                	li	a0,1
     276:	b765                	j	21e <get_iso8859_code+0x2c>
     278:	0e000693          	li	a3,224
     27c:	00d79563          	bne	a5,a3,286 <get_iso8859_code+0x94>
     280:	00276713          	ori	a4,a4,2
     284:	bfc5                	j	274 <get_iso8859_code+0x82>
     286:	00177693          	andi	a3,a4,1
     28a:	ca8d                	beqz	a3,2bc <get_iso8859_code+0xca>
     28c:	46c9                	li	a3,18
     28e:	00d79763          	bne	a5,a3,29c <get_iso8859_code+0xaa>
     292:	0fb77713          	andi	a4,a4,251
     296:	0fc77713          	andi	a4,a4,252
     29a:	bfe9                	j	274 <get_iso8859_code+0x82>
     29c:	05900693          	li	a3,89
     2a0:	00d79563          	bne	a5,a3,2aa <get_iso8859_code+0xb8>
     2a4:	0f777713          	andi	a4,a4,247
     2a8:	b7fd                	j	296 <get_iso8859_code+0xa4>
     2aa:	46c5                	li	a3,17
     2ac:	fed795e3          	bne	a5,a3,296 <get_iso8859_code+0xa4>
     2b0:	00277793          	andi	a5,a4,2
     2b4:	d3ed                	beqz	a5,296 <get_iso8859_code+0xa4>
     2b6:	0ef77713          	andi	a4,a4,239
     2ba:	bff1                	j	296 <get_iso8859_code+0xa4>
     2bc:	46c9                	li	a3,18
     2be:	00d79563          	bne	a5,a3,2c8 <get_iso8859_code+0xd6>
     2c2:	00476713          	ori	a4,a4,4
     2c6:	b77d                	j	274 <get_iso8859_code+0x82>
     2c8:	05900693          	li	a3,89
     2cc:	00d79563          	bne	a5,a3,2d6 <get_iso8859_code+0xe4>
     2d0:	00876713          	ori	a4,a4,8
     2d4:	b745                	j	274 <get_iso8859_code+0x82>
     2d6:	4545                	li	a0,17
     2d8:	00277693          	andi	a3,a4,2
     2dc:	02a79263          	bne	a5,a0,300 <get_iso8859_code+0x10e>
     2e0:	c6ed                	beqz	a3,3ca <get_iso8859_code+0x1d8>
     2e2:	01076713          	ori	a4,a4,16
     2e6:	fb678793          	addi	a5,a5,-74
     2ea:	0ff7f793          	andi	a5,a5,255
     2ee:	03300693          	li	a3,51
     2f2:	faf6e2e3          	bltu	a3,a5,296 <get_iso8859_code+0xa4>
     2f6:	4692                	lw	a3,4(sp)
     2f8:	97b6                	add	a5,a5,a3
     2fa:	00078503          	lb	a0,0(a5)
     2fe:	a049                	j	380 <get_iso8859_code+0x18e>
     300:	05800513          	li	a0,88
     304:	00a79863          	bne	a5,a0,314 <get_iso8859_code+0x122>
     308:	00477513          	andi	a0,a4,4
     30c:	c501                	beqz	a0,314 <get_iso8859_code+0x122>
     30e:	00164613          	xori	a2,a2,1
     312:	4285                	li	t0,1
     314:	fae9                	bnez	a3,2e6 <get_iso8859_code+0xf4>
     316:	03500693          	li	a3,53
     31a:	08f6e063          	bltu	a3,a5,39a <get_iso8859_code+0x1a8>
     31e:	03100513          	li	a0,49
     322:	4685                	li	a3,1
     324:	02a7f563          	bgeu	a5,a0,34e <get_iso8859_code+0x15c>
     328:	02400693          	li	a3,36
     32c:	06f6e463          	bltu	a3,a5,394 <get_iso8859_code+0x1a2>
     330:	02100513          	li	a0,33
     334:	4685                	li	a3,1
     336:	00a7fc63          	bgeu	a5,a0,34e <get_iso8859_code+0x15c>
     33a:	4555                	li	a0,21
     33c:	00a78963          	beq	a5,a0,34e <get_iso8859_code+0x15c>
     340:	4681                	li	a3,0
     342:	00a7e663          	bltu	a5,a0,34e <get_iso8859_code+0x15c>
     346:	fe678693          	addi	a3,a5,-26
     34a:	0046b693          	sltiu	a3,a3,4
     34e:	08700513          	li	a0,135
     352:	f4f562e3          	bltu	a0,a5,296 <get_iso8859_code+0xa4>
     356:	01077513          	andi	a0,a4,16
     35a:	979e                	add	a5,a5,t2
     35c:	c501                	beqz	a0,364 <get_iso8859_code+0x172>
     35e:	1103c503          	lbu	a0,272(t2)
     362:	e93d                	bnez	a0,3d8 <get_iso8859_code+0x1e6>
     364:	00c77513          	andi	a0,a4,12
     368:	c13d                	beqz	a0,3ce <get_iso8859_code+0x1dc>
     36a:	4505                	li	a0,1
     36c:	c219                	beqz	a2,372 <get_iso8859_code+0x180>
     36e:	0016c513          	xori	a0,a3,1
     372:	0ff57693          	andi	a3,a0,255
     376:	4505                	li	a0,1
     378:	f8a691e3          	bne	a3,a0,2fa <get_iso8859_code+0x108>
     37c:	08878503          	lb	a0,136(a5)
     380:	0fc77713          	andi	a4,a4,252
     384:	ee0508e3          	beqz	a0,274 <get_iso8859_code+0x82>
     388:	00e30023          	sb	a4,0(t1)
     38c:	ea028ce3          	beqz	t0,244 <get_iso8859_code+0x52>
     390:	a190                	sb	a2,0(a1)
     392:	bd4d                	j	244 <get_iso8859_code+0x52>
     394:	fd678693          	addi	a3,a5,-42
     398:	bf4d                	j	34a <get_iso8859_code+0x158>
     39a:	04400693          	li	a3,68
     39e:	00f6ec63          	bltu	a3,a5,3b6 <get_iso8859_code+0x1c4>
     3a2:	04200513          	li	a0,66
     3a6:	4685                	li	a3,1
     3a8:	faa7f3e3          	bgeu	a5,a0,34e <get_iso8859_code+0x15c>
     3ac:	fc678693          	addi	a3,a5,-58
     3b0:	0036b693          	sltiu	a3,a3,3
     3b4:	bf69                	j	34e <get_iso8859_code+0x15c>
     3b6:	04b00513          	li	a0,75
     3ba:	4685                	li	a3,1
     3bc:	f8a789e3          	beq	a5,a0,34e <get_iso8859_code+0x15c>
     3c0:	fb378693          	addi	a3,a5,-77
     3c4:	0016b693          	seqz	a3,a3
     3c8:	b759                	j	34e <get_iso8859_code+0x15c>
     3ca:	4681                	li	a3,0
     3cc:	b749                	j	34e <get_iso8859_code+0x15c>
     3ce:	e211                	bnez	a2,3d2 <get_iso8859_code+0x1e0>
     3d0:	4681                	li	a3,0
     3d2:	0ff6f693          	andi	a3,a3,255
     3d6:	b745                	j	376 <get_iso8859_code+0x184>
     3d8:	11178503          	lb	a0,273(a5)
     3dc:	b755                	j	380 <get_iso8859_code+0x18e>

000003de <EXTI7_0_IRQHandler>:
     3de:	1171                	addi	sp,sp,-4
     3e0:	4509                	li	a0,2
     3e2:	c022                	sw	s0,0(sp)
     3e4:	439010ef          	jal	ra,201c <EXTI_GetITStatus>
     3e8:	c919                	beqz	a0,3fe <EXTI7_0_IRQHandler+0x20>
     3ea:	4589                	li	a1,2
     3ec:	40011537          	lui	a0,0x40011
     3f0:	629010ef          	jal	ra,2218 <GPIO_ReadInputDataBit>
     3f4:	c909                	beqz	a0,406 <EXTI7_0_IRQHandler+0x28>
     3f6:	10000513          	li	a0,256
     3fa:	441010ef          	jal	ra,203a <EXTI_ClearITPendingBit>
     3fe:	4402                	lw	s0,0(sp)
     400:	0111                	addi	sp,sp,4
     402:	30200073          	mret
     406:	4591                	li	a1,4
     408:	40011537          	lui	a0,0x40011
     40c:	60d010ef          	jal	ra,2218 <GPIO_ReadInputDataBit>
     410:	e000f7b7          	lui	a5,0xe000f
     414:	842a                	mv	s0,a0
     416:	4788                	lw	a0,8(a5)
     418:	4599                	li	a1,6
     41a:	396d                	jal	d4 <__udivsi3>
     41c:	82c1a683          	lw	a3,-2004(gp) # 2000017c <prev_ms.4043>
     420:	0fa00613          	li	a2,250
     424:	40d506b3          	sub	a3,a0,a3
     428:	82c18793          	addi	a5,gp,-2004 # 2000017c <prev_ms.4043>
     42c:	81318713          	addi	a4,gp,-2029 # 20000163 <bitcount.4041>
     430:	00d67663          	bgeu	a2,a3,43c <EXTI7_0_IRQHandler+0x5e>
     434:	00070023          	sb	zero,0(a4)
     438:	820182a3          	sb	zero,-2011(gp) # 20000175 <incoming.4042>
     43c:	c388                	sw	a0,0(a5)
     43e:	231c                	lbu	a5,0(a4)
     440:	469d                	li	a3,7
     442:	fff78513          	addi	a0,a5,-1 # e000efff <__global_pointer$+0xc000e6af>
     446:	0ff57513          	andi	a0,a0,255
     44a:	00a6e963          	bltu	a3,a0,45c <EXTI7_0_IRQHandler+0x7e>
     44e:	82518693          	addi	a3,gp,-2011 # 20000175 <incoming.4042>
     452:	2290                	lbu	a2,0(a3)
     454:	00a41533          	sll	a0,s0,a0
     458:	8d51                	or	a0,a0,a2
     45a:	a288                	sb	a0,0(a3)
     45c:	0785                	addi	a5,a5,1
     45e:	0ff7f793          	andi	a5,a5,255
     462:	a31c                	sb	a5,0(a4)
     464:	46ad                	li	a3,11
     466:	02d79e63          	bne	a5,a3,4a2 <EXTI7_0_IRQHandler+0xc4>
     46a:	82418793          	addi	a5,gp,-2012 # 20000174 <head>
     46e:	239c                	lbu	a5,0(a5)
     470:	463d                	li	a2,15
     472:	82418593          	addi	a1,gp,-2012 # 20000174 <head>
     476:	0785                	addi	a5,a5,1
     478:	0ff7f793          	andi	a5,a5,255
     47c:	00f67363          	bgeu	a2,a5,482 <EXTI7_0_IRQHandler+0xa4>
     480:	4781                	li	a5,0
     482:	8311c683          	lbu	a3,-1999(gp) # 20000181 <tail>
     486:	82518613          	addi	a2,gp,-2011 # 20000175 <incoming.4042>
     48a:	00d78863          	beq	a5,a3,49a <EXTI7_0_IRQHandler+0xbc>
     48e:	2208                	lbu	a0,0(a2)
     490:	81418693          	addi	a3,gp,-2028 # 20000164 <buffer>
     494:	96be                	add	a3,a3,a5
     496:	a288                	sb	a0,0(a3)
     498:	a19c                	sb	a5,0(a1)
     49a:	00070023          	sb	zero,0(a4)
     49e:	00060023          	sb	zero,0(a2)
     4a2:	4509                	li	a0,2
     4a4:	bf99                	j	3fa <EXTI7_0_IRQHandler+0x1c>

000004a6 <kbd_available>:
     4a6:	bfbff2ef          	jal	t0,a0 <__riscv_save_0>
     4aa:	81118413          	addi	s0,gp,-2031 # 20000161 <CharBuffer>
     4ae:	201c                	lbu	a5,0(s0)
     4b0:	8121c703          	lbu	a4,-2030(gp) # 20000162 <UTF8next>
     4b4:	4505                	li	a0,1
     4b6:	8fd9                	or	a5,a5,a4
     4b8:	e799                	bnez	a5,4c6 <kbd_available+0x20>
     4ba:	3b25                	jal	1f2 <get_iso8859_code>
     4bc:	0ff57513          	andi	a0,a0,255
     4c0:	a008                	sb	a0,0(s0)
     4c2:	00a03533          	snez	a0,a0
     4c6:	b6d5                	j	aa <__riscv_restore_0>

000004c8 <kbd_read>:
     4c8:	81218693          	addi	a3,gp,-2030 # 20000162 <UTF8next>
     4cc:	229c                	lbu	a5,0(a3)
     4ce:	c789                	beqz	a5,4d8 <kbd_read+0x10>
     4d0:	00068023          	sb	zero,0(a3)
     4d4:	853e                	mv	a0,a5
     4d6:	8082                	ret
     4d8:	bc9ff2ef          	jal	t0,a0 <__riscv_save_0>
     4dc:	81218413          	addi	s0,gp,-2030 # 20000162 <UTF8next>
     4e0:	81118713          	addi	a4,gp,-2031 # 20000161 <CharBuffer>
     4e4:	231c                	lbu	a5,0(a4)
     4e6:	c395                	beqz	a5,50a <kbd_read+0x42>
     4e8:	00070023          	sb	zero,0(a4)
     4ec:	01879713          	slli	a4,a5,0x18
     4f0:	8761                	srai	a4,a4,0x18
     4f2:	02075063          	bgez	a4,512 <kbd_read+0x4a>
     4f6:	03f77713          	andi	a4,a4,63
     4fa:	f8076713          	ori	a4,a4,-128
     4fe:	8399                	srli	a5,a5,0x6
     500:	a018                	sb	a4,0(s0)
     502:	0c07e793          	ori	a5,a5,192
     506:	853e                	mv	a0,a5
     508:	a039                	j	516 <kbd_read+0x4e>
     50a:	31e5                	jal	1f2 <get_iso8859_code>
     50c:	0ff57793          	andi	a5,a0,255
     510:	bff1                	j	4ec <kbd_read+0x24>
     512:	557d                	li	a0,-1
     514:	fbed                	bnez	a5,506 <kbd_read+0x3e>
     516:	be51                	j	aa <__riscv_restore_0>

00000518 <kbd_init>:
     518:	b89ff2ef          	jal	t0,a0 <__riscv_save_0>
     51c:	6789                	lui	a5,0x2
     51e:	fdc10113          	addi	sp,sp,-36
     522:	7f878793          	addi	a5,a5,2040 # 27f8 <PS2Keymap_Japanese>
     526:	4585                	li	a1,1
     528:	4545                	li	a0,17
     52a:	82f1a423          	sw	a5,-2008(gp) # 20000178 <keymap>
     52e:	c402                	sw	zero,8(sp)
     530:	c602                	sw	zero,12(sp)
     532:	c802                	sw	zero,16(sp)
     534:	ca02                	sw	zero,20(sp)
     536:	cc02                	sw	zero,24(sp)
     538:	ce02                	sw	zero,28(sp)
     53a:	d002                	sw	zero,32(sp)
     53c:	c002                	sw	zero,0(sp)
     53e:	c202                	sw	zero,4(sp)
     540:	5cf010ef          	jal	ra,230e <RCC_APB2PeriphClockCmd>
     544:	4789                	li	a5,2
     546:	04800493          	li	s1,72
     54a:	440d                	li	s0,3
     54c:	002c                	addi	a1,sp,8
     54e:	40011537          	lui	a0,0x40011
     552:	847c                	sh	a5,8(sp)
     554:	c826                	sw	s1,16(sp)
     556:	c622                	sw	s0,12(sp)
     558:	3eb010ef          	jal	ra,2142 <GPIO_Init>
     55c:	4791                	li	a5,4
     55e:	002c                	addi	a1,sp,8
     560:	40011537          	lui	a0,0x40011
     564:	847c                	sh	a5,8(sp)
     566:	c826                	sw	s1,16(sp)
     568:	c622                	sw	s0,12(sp)
     56a:	3d9010ef          	jal	ra,2142 <GPIO_Init>
     56e:	4585                	li	a1,1
     570:	4509                	li	a0,2
     572:	4b1010ef          	jal	ra,2222 <GPIO_EXTILineConfig>
     576:	4789                	li	a5,2
     578:	4405                	li	s0,1
     57a:	ca3e                	sw	a5,20(sp)
     57c:	0848                	addi	a0,sp,20
     57e:	47b1                	li	a5,12
     580:	ce3e                	sw	a5,28(sp)
     582:	d022                	sw	s0,32(sp)
     584:	cc02                	sw	zero,24(sp)
     586:	22d010ef          	jal	ra,1fb2 <EXTI_Init>
     58a:	11400793          	li	a5,276
     58e:	850a                	mv	a0,sp
     590:	807c                	sh	a5,0(sp)
     592:	c222                	sw	s0,4(sp)
     594:	00010123          	sb	zero,2(sp)
     598:	4b3010ef          	jal	ra,224a <NVIC_Init>
     59c:	82018223          	sb	zero,-2012(gp) # 20000174 <head>
     5a0:	820188a3          	sb	zero,-1999(gp) # 20000181 <tail>
     5a4:	02410113          	addi	sp,sp,36
     5a8:	b609                	j	aa <__riscv_restore_0>

000005aa <sstyle>:
     5aa:	167d                	addi	a2,a2,-1
     5ac:	0ff67613          	andi	a2,a2,255
     5b0:	0ff00793          	li	a5,255
     5b4:	00f61463          	bne	a2,a5,5bc <sstyle+0x12>
     5b8:	4501                	li	a0,0
     5ba:	8082                	ret
     5bc:	00c58733          	add	a4,a1,a2
     5c0:	2318                	lbu	a4,0(a4)
     5c2:	167d                	addi	a2,a2,-1
     5c4:	0ff67613          	andi	a2,a2,255
     5c8:	fea716e3          	bne	a4,a0,5b4 <sstyle+0xa>
     5cc:	4505                	li	a0,1
     5ce:	8082                	ret

000005d0 <c_toupper>:
     5d0:	0ff57793          	andi	a5,a0,255
     5d4:	f9f78713          	addi	a4,a5,-97
     5d8:	0ff77713          	andi	a4,a4,255
     5dc:	46e5                	li	a3,25
     5de:	00e6e663          	bltu	a3,a4,5ea <c_toupper+0x1a>
     5e2:	1781                	addi	a5,a5,-32
     5e4:	01879513          	slli	a0,a5,0x18
     5e8:	8561                	srai	a0,a0,0x18
     5ea:	8082                	ret

000005ec <c_isspace>:
     5ec:	02000793          	li	a5,32
     5f0:	00f50863          	beq	a0,a5,600 <c_isspace+0x14>
     5f4:	155d                	addi	a0,a0,-9
     5f6:	0ff57513          	andi	a0,a0,255
     5fa:	00553513          	sltiu	a0,a0,5
     5fe:	8082                	ret
     600:	4505                	li	a0,1
     602:	8082                	ret

00000604 <c_isalpha>:
     604:	fdf57513          	andi	a0,a0,-33
     608:	fbf50513          	addi	a0,a0,-65 # 40010fbf <__global_pointer$+0x2001066f>
     60c:	0ff57513          	andi	a0,a0,255
     610:	01a53513          	sltiu	a0,a0,26
     614:	8082                	ret

00000616 <c_puts>:
     616:	a8bff2ef          	jal	t0,a0 <__riscv_save_0>
     61a:	842a                	mv	s0,a0
     61c:	00040503          	lb	a0,0(s0)
     620:	e111                	bnez	a0,624 <c_puts+0xe>
     622:	b461                	j	aa <__riscv_restore_0>
     624:	0ff57513          	andi	a0,a0,255
     628:	0405                	addi	s0,s0,1
     62a:	4a6010ef          	jal	ra,1ad0 <video_putch>
     62e:	b7fd                	j	61c <c_puts+0x6>

00000630 <c_gets>:
     630:	a71ff2ef          	jal	t0,a0 <__riscv_save_0>
     634:	1171                	addi	sp,sp,-4
     636:	4401                	li	s0,0
     638:	3d41                	jal	4c8 <kbd_read>
     63a:	01851793          	slli	a5,a0,0x18
     63e:	87e1                	srai	a5,a5,0x18
     640:	4735                	li	a4,13
     642:	02e79d63          	bne	a5,a4,67c <c_gets+0x4c>
     646:	4f6010ef          	jal	ra,1b3c <video_newline>
     64a:	8ec18793          	addi	a5,gp,-1812 # 2000023c <lbuf>
     64e:	97a2                	add	a5,a5,s0
     650:	00078023          	sb	zero,0(a5)
     654:	8ec18493          	addi	s1,gp,-1812 # 2000023c <lbuf>
     658:	c005                	beqz	s0,678 <c_gets+0x48>
     65a:	fff40793          	addi	a5,s0,-1
     65e:	0ff7f793          	andi	a5,a5,255
     662:	00f48733          	add	a4,s1,a5
     666:	00070503          	lb	a0,0(a4)
     66a:	c03e                	sw	a5,0(sp)
     66c:	3741                	jal	5ec <c_isspace>
     66e:	4782                	lw	a5,0(sp)
     670:	ed2d                	bnez	a0,6ea <c_gets+0xba>
     672:	9426                	add	s0,s0,s1
     674:	00040023          	sb	zero,0(s0)
     678:	0111                	addi	sp,sp,4
     67a:	bc05                	j	aa <__riscv_restore_0>
     67c:	4725                	li	a4,9
     67e:	02e78863          	beq	a5,a4,6ae <c_gets+0x7e>
     682:	4721                	li	a4,8
     684:	00e78663          	beq	a5,a4,690 <c_gets+0x60>
     688:	07f00713          	li	a4,127
     68c:	02e79363          	bne	a5,a4,6b2 <c_gets+0x82>
     690:	c00d                	beqz	s0,6b2 <c_gets+0x82>
     692:	4521                	li	a0,8
     694:	43c010ef          	jal	ra,1ad0 <video_putch>
     698:	02000513          	li	a0,32
     69c:	434010ef          	jal	ra,1ad0 <video_putch>
     6a0:	147d                	addi	s0,s0,-1
     6a2:	4521                	li	a0,8
     6a4:	0ff47413          	andi	s0,s0,255
     6a8:	428010ef          	jal	ra,1ad0 <video_putch>
     6ac:	b771                	j	638 <c_gets+0x8>
     6ae:	02000793          	li	a5,32
     6b2:	0ff7f513          	andi	a0,a5,255
     6b6:	fe050713          	addi	a4,a0,-32
     6ba:	0ff77713          	andi	a4,a4,255
     6be:	05e00693          	li	a3,94
     6c2:	f6e6ebe3          	bltu	a3,a4,638 <c_gets+0x8>
     6c6:	04e00713          	li	a4,78
     6ca:	f68767e3          	bltu	a4,s0,638 <c_gets+0x8>
     6ce:	00140713          	addi	a4,s0,1
     6d2:	8ec18693          	addi	a3,gp,-1812 # 2000023c <lbuf>
     6d6:	0ff77713          	andi	a4,a4,255
     6da:	9436                	add	s0,s0,a3
     6dc:	c03a                	sw	a4,0(sp)
     6de:	a01c                	sb	a5,0(s0)
     6e0:	3f0010ef          	jal	ra,1ad0 <video_putch>
     6e4:	4702                	lw	a4,0(sp)
     6e6:	843a                	mv	s0,a4
     6e8:	bf81                	j	638 <c_gets+0x8>
     6ea:	843e                	mv	s0,a5
     6ec:	b7bd                	j	65a <c_gets+0x2a>

000006ee <putnum>:
     6ee:	9b3ff2ef          	jal	t0,a0 <__riscv_save_0>
     6f2:	1141                	addi	sp,sp,-16
     6f4:	842a                	mv	s0,a0
     6f6:	872e                	mv	a4,a1
     6f8:	4601                	li	a2,0
     6fa:	00055763          	bgez	a0,708 <putnum+0x1a>
     6fe:	40a00433          	neg	s0,a0
     702:	0442                	slli	s0,s0,0x10
     704:	8441                	srai	s0,s0,0x10
     706:	4605                	li	a2,1
     708:	8ec18693          	addi	a3,gp,-1812 # 2000023c <lbuf>
     70c:	00068323          	sb	zero,6(a3)
     710:	8ec18793          	addi	a5,gp,-1812 # 2000023c <lbuf>
     714:	4699                	li	a3,6
     716:	fff68493          	addi	s1,a3,-1
     71a:	0ff4f493          	andi	s1,s1,255
     71e:	009782b3          	add	t0,a5,s1
     722:	45a9                	li	a1,10
     724:	8522                	mv	a0,s0
     726:	c63a                	sw	a4,12(sp)
     728:	c432                	sw	a2,8(sp)
     72a:	c236                	sw	a3,4(sp)
     72c:	c016                	sw	t0,0(sp)
     72e:	3add                	jal	124 <__modsi3>
     730:	4282                	lw	t0,0(sp)
     732:	03050513          	addi	a0,a0,48
     736:	45a9                	li	a1,10
     738:	00a28023          	sb	a0,0(t0) # 1d8 <memset+0x8e>
     73c:	8522                	mv	a0,s0
     73e:	3279                	jal	cc <__divsi3>
     740:	0542                	slli	a0,a0,0x10
     742:	4325                	li	t1,9
     744:	8541                	srai	a0,a0,0x10
     746:	8ec18793          	addi	a5,gp,-1812 # 2000023c <lbuf>
     74a:	4692                	lw	a3,4(sp)
     74c:	4622                	lw	a2,8(sp)
     74e:	4732                	lw	a4,12(sp)
     750:	00834f63          	blt	t1,s0,76e <putnum+0x80>
     754:	ca11                	beqz	a2,768 <putnum+0x7a>
     756:	ffe68493          	addi	s1,a3,-2
     75a:	0ff4f493          	andi	s1,s1,255
     75e:	009786b3          	add	a3,a5,s1
     762:	02d00613          	li	a2,45
     766:	a290                	sb	a2,0(a3)
     768:	4419                	li	s0,6
     76a:	8c05                	sub	s0,s0,s1
     76c:	a839                	j	78a <putnum+0x9c>
     76e:	86a6                	mv	a3,s1
     770:	842a                	mv	s0,a0
     772:	b755                	j	716 <putnum+0x28>
     774:	02000513          	li	a0,32
     778:	c03a                	sw	a4,0(sp)
     77a:	356010ef          	jal	ra,1ad0 <video_putch>
     77e:	4702                	lw	a4,0(sp)
     780:	8ec18793          	addi	a5,gp,-1812 # 2000023c <lbuf>
     784:	177d                	addi	a4,a4,-1
     786:	0742                	slli	a4,a4,0x10
     788:	8741                	srai	a4,a4,0x10
     78a:	fee445e3          	blt	s0,a4,774 <putnum+0x86>
     78e:	00978533          	add	a0,a5,s1
     792:	3551                	jal	616 <c_puts>
     794:	0141                	addi	sp,sp,16
     796:	ba11                	j	aa <__riscv_restore_0>

00000798 <getnum>:
     798:	909ff2ef          	jal	t0,a0 <__riscv_save_0>
     79c:	1171                	addi	sp,sp,-4
     79e:	4401                	li	s0,0
     7a0:	3325                	jal	4c8 <kbd_read>
     7a2:	01851793          	slli	a5,a0,0x18
     7a6:	87e1                	srai	a5,a5,0x18
     7a8:	4735                	li	a4,13
     7aa:	04e79f63          	bne	a5,a4,808 <getnum+0x70>
     7ae:	38e010ef          	jal	ra,1b3c <video_newline>
     7b2:	8ec18793          	addi	a5,gp,-1812 # 2000023c <lbuf>
     7b6:	943e                	add	s0,s0,a5
     7b8:	00040023          	sb	zero,0(s0)
     7bc:	00078783          	lb	a5,0(a5)
     7c0:	02b00713          	li	a4,43
     7c4:	8ec18613          	addi	a2,gp,-1812 # 2000023c <lbuf>
     7c8:	0ae78763          	beq	a5,a4,876 <getnum+0xde>
     7cc:	02d00713          	li	a4,45
     7d0:	0ae78663          	beq	a5,a4,87c <getnum+0xe4>
     7d4:	4581                	li	a1,0
     7d6:	4701                	li	a4,0
     7d8:	87c1c303          	lbu	t1,-1924(gp) # 200001cc <err>
     7dc:	4281                	li	t0,0
     7de:	4501                	li	a0,0
     7e0:	87c18693          	addi	a3,gp,-1924 # 200001cc <err>
     7e4:	00e607b3          	add	a5,a2,a4
     7e8:	00078383          	lb	t2,0(a5)
     7ec:	08039a63          	bnez	t2,880 <getnum+0xe8>
     7f0:	00028463          	beqz	t0,7f8 <getnum+0x60>
     7f4:	00668023          	sb	t1,0(a3)
     7f8:	c589                	beqz	a1,802 <getnum+0x6a>
     7fa:	40a00533          	neg	a0,a0
     7fe:	0542                	slli	a0,a0,0x10
     800:	8541                	srai	a0,a0,0x10
     802:	0111                	addi	sp,sp,4
     804:	8a7ff06f          	j	aa <__riscv_restore_0>
     808:	4721                	li	a4,8
     80a:	00e78663          	beq	a5,a4,816 <getnum+0x7e>
     80e:	07f00713          	li	a4,127
     812:	02e79163          	bne	a5,a4,834 <getnum+0x9c>
     816:	c40d                	beqz	s0,840 <getnum+0xa8>
     818:	4521                	li	a0,8
     81a:	2b6010ef          	jal	ra,1ad0 <video_putch>
     81e:	02000513          	li	a0,32
     822:	2ae010ef          	jal	ra,1ad0 <video_putch>
     826:	147d                	addi	s0,s0,-1
     828:	4521                	li	a0,8
     82a:	0ff47413          	andi	s0,s0,255
     82e:	2a2010ef          	jal	ra,1ad0 <video_putch>
     832:	b7bd                	j	7a0 <getnum+0x8>
     834:	ec0d                	bnez	s0,86e <getnum+0xd6>
     836:	fd550713          	addi	a4,a0,-43
     83a:	0fd77713          	andi	a4,a4,253
     83e:	cb01                	beqz	a4,84e <getnum+0xb6>
     840:	fd050713          	addi	a4,a0,-48
     844:	0ff77713          	andi	a4,a4,255
     848:	46a5                	li	a3,9
     84a:	f4e6ebe3          	bltu	a3,a4,7a0 <getnum+0x8>
     84e:	00140713          	addi	a4,s0,1
     852:	8ec18693          	addi	a3,gp,-1812 # 2000023c <lbuf>
     856:	0ff77713          	andi	a4,a4,255
     85a:	9436                	add	s0,s0,a3
     85c:	0ff57513          	andi	a0,a0,255
     860:	c03a                	sw	a4,0(sp)
     862:	a01c                	sb	a5,0(s0)
     864:	26c010ef          	jal	ra,1ad0 <video_putch>
     868:	4702                	lw	a4,0(sp)
     86a:	843a                	mv	s0,a4
     86c:	bf15                	j	7a0 <getnum+0x8>
     86e:	4715                	li	a4,5
     870:	f28768e3          	bltu	a4,s0,7a0 <getnum+0x8>
     874:	b7f1                	j	840 <getnum+0xa8>
     876:	4581                	li	a1,0
     878:	4705                	li	a4,1
     87a:	bfb9                	j	7d8 <getnum+0x40>
     87c:	4585                	li	a1,1
     87e:	bfed                	j	878 <getnum+0xe0>
     880:	00251793          	slli	a5,a0,0x2
     884:	97aa                	add	a5,a5,a0
     886:	0786                	slli	a5,a5,0x1
     888:	fd078793          	addi	a5,a5,-48
     88c:	979e                	add	a5,a5,t2
     88e:	07c2                	slli	a5,a5,0x10
     890:	0705                	addi	a4,a4,1
     892:	87c1                	srai	a5,a5,0x10
     894:	0ff77713          	andi	a4,a4,255
     898:	00a7d463          	bge	a5,a0,8a0 <getnum+0x108>
     89c:	4285                	li	t0,1
     89e:	4309                	li	t1,2
     8a0:	853e                	mv	a0,a5
     8a2:	b789                	j	7e4 <getnum+0x4c>

000008a4 <toktoi>:
     8a4:	ffcff2ef          	jal	t0,a0 <__riscv_save_0>
     8a8:	200007b7          	lui	a5,0x20000
     8ac:	1111                	addi	sp,sp,-28
     8ae:	05c78793          	addi	a5,a5,92 # 2000005c <kwtbl>
     8b2:	8ec18493          	addi	s1,gp,-1812 # 2000023c <lbuf>
     8b6:	4401                	li	s0,0
     8b8:	89c18713          	addi	a4,gp,-1892 # 200001ec <ibuf>
     8bc:	c03e                	sw	a5,0(sp)
     8be:	00870333          	add	t1,a4,s0
     8c2:	00048783          	lb	a5,0(s1)
     8c6:	eb99                	bnez	a5,8dc <toktoi+0x38>
     8c8:	00140513          	addi	a0,s0,1
     8cc:	02700793          	li	a5,39
     8d0:	943a                	add	s0,s0,a4
     8d2:	0ff57513          	andi	a0,a0,255
     8d6:	a01c                	sb	a5,0(s0)
     8d8:	ac79                	j	b76 <toktoi+0x2d2>
     8da:	0485                	addi	s1,s1,1
     8dc:	00048503          	lb	a0,0(s1)
     8e0:	c21a                	sw	t1,4(sp)
     8e2:	3329                	jal	5ec <c_isspace>
     8e4:	4312                	lw	t1,4(sp)
     8e6:	89c18713          	addi	a4,gp,-1892 # 200001ec <ibuf>
     8ea:	f965                	bnez	a0,8da <toktoi+0x36>
     8ec:	4601                	li	a2,0
     8ee:	4682                	lw	a3,0(sp)
     8f0:	00261793          	slli	a5,a2,0x2
     8f4:	0ff67293          	andi	t0,a2,255
     8f8:	97b6                	add	a5,a5,a3
     8fa:	438c                	lw	a1,0(a5)
     8fc:	87a6                	mv	a5,s1
     8fe:	00058383          	lb	t2,0(a1)
     902:	cc32                	sw	a2,24(sp)
     904:	ca1e                	sw	t2,20(sp)
     906:	26038063          	beqz	t2,b66 <toktoi+0x2c2>
     90a:	00078503          	lb	a0,0(a5)
     90e:	c82e                	sw	a1,16(sp)
     910:	c616                	sw	t0,12(sp)
     912:	c41a                	sw	t1,8(sp)
     914:	c23e                	sw	a5,4(sp)
     916:	396d                	jal	5d0 <c_toupper>
     918:	43d2                	lw	t2,20(sp)
     91a:	4792                	lw	a5,4(sp)
     91c:	4322                	lw	t1,8(sp)
     91e:	42b2                	lw	t0,12(sp)
     920:	45c2                	lw	a1,16(sp)
     922:	89c18713          	addi	a4,gp,-1892 # 200001ec <ibuf>
     926:	4662                	lw	a2,24(sp)
     928:	00a38a63          	beq	t2,a0,93c <toktoi+0x98>
     92c:	0605                	addi	a2,a2,1
     92e:	02400793          	li	a5,36
     932:	faf61ee3          	bne	a2,a5,8ee <toktoi+0x4a>
     936:	87a6                	mv	a5,s1
     938:	8622                	mv	a2,s0
     93a:	a065                	j	9e2 <toktoi+0x13e>
     93c:	0585                	addi	a1,a1,1
     93e:	0785                	addi	a5,a5,1
     940:	bf7d                	j	8fe <toktoi+0x5a>
     942:	00140613          	addi	a2,s0,1
     946:	00530023          	sb	t0,0(t1)
     94a:	46a1                	li	a3,8
     94c:	0ff67613          	andi	a2,a2,255
     950:	08d29363          	bne	t0,a3,9d6 <toktoi+0x132>
     954:	00078503          	lb	a0,0(a5)
     958:	c232                	sw	a2,4(sp)
     95a:	c03e                	sw	a5,0(sp)
     95c:	3941                	jal	5ec <c_isspace>
     95e:	4782                	lw	a5,0(sp)
     960:	4612                	lw	a2,4(sp)
     962:	00178693          	addi	a3,a5,1
     966:	89c18713          	addi	a4,gp,-1892 # 200001ec <ibuf>
     96a:	e939                	bnez	a0,9c0 <toktoi+0x11c>
     96c:	4581                	li	a1,0
     96e:	00158693          	addi	a3,a1,1
     972:	00d78333          	add	t1,a5,a3
     976:	fff30303          	lb	t1,-1(t1)
     97a:	0ff5f513          	andi	a0,a1,255
     97e:	04031363          	bnez	t1,9c4 <toktoi+0x120>
     982:	0ff5f593          	andi	a1,a1,255
     986:	04e00693          	li	a3,78
     98a:	40b685b3          	sub	a1,a3,a1
     98e:	1eb65063          	bge	a2,a1,b6e <toktoi+0x2ca>
     992:	00240693          	addi	a3,s0,2
     996:	00340593          	addi	a1,s0,3
     99a:	963a                	add	a2,a2,a4
     99c:	0ff6f693          	andi	a3,a3,255
     9a0:	95aa                	add	a1,a1,a0
     9a2:	a208                	sb	a0,0(a2)
     9a4:	0ff5f593          	andi	a1,a1,255
     9a8:	8636                	mv	a2,a3
     9aa:	8332                	mv	t1,a2
     9ac:	0605                	addi	a2,a2,1
     9ae:	0ff67613          	andi	a2,a2,255
     9b2:	00c59b63          	bne	a1,a2,9c8 <toktoi+0x124>
     9b6:	00a68433          	add	s0,a3,a0
     9ba:	0ff47413          	andi	s0,s0,255
     9be:	b729                	j	8c8 <toktoi+0x24>
     9c0:	87b6                	mv	a5,a3
     9c2:	bf49                	j	954 <toktoi+0xb0>
     9c4:	85b6                	mv	a1,a3
     9c6:	b765                	j	96e <toktoi+0xca>
     9c8:	0007c283          	lbu	t0,0(a5)
     9cc:	933a                	add	t1,t1,a4
     9ce:	0785                	addi	a5,a5,1
     9d0:	00530023          	sb	t0,0(t1)
     9d4:	bfd9                	j	9aa <toktoi+0x106>
     9d6:	00058583          	lb	a1,0(a1)
     9da:	0305                	addi	t1,t1,1
     9dc:	84be                	mv	s1,a5
     9de:	18058263          	beqz	a1,b62 <toktoi+0x2be>
     9e2:	00078483          	lb	s1,0(a5)
     9e6:	45a5                	li	a1,9
     9e8:	fd048693          	addi	a3,s1,-48
     9ec:	0ff6f693          	andi	a3,a3,255
     9f0:	06d5eb63          	bltu	a1,a3,a66 <toktoi+0x1c2>
     9f4:	4581                	li	a1,0
     9f6:	4325                	li	t1,9
     9f8:	0785                	addi	a5,a5,1
     9fa:	fff78683          	lb	a3,-1(a5)
     9fe:	00259513          	slli	a0,a1,0x2
     a02:	952e                	add	a0,a0,a1
     a04:	0506                	slli	a0,a0,0x1
     a06:	fd068693          	addi	a3,a3,-48
     a0a:	96aa                	add	a3,a3,a0
     a0c:	06c2                	slli	a3,a3,0x10
     a0e:	82c1                	srli	a3,a3,0x10
     a10:	01069513          	slli	a0,a3,0x10
     a14:	8541                	srai	a0,a0,0x10
     a16:	00b55463          	bge	a0,a1,a1e <toktoi+0x17a>
     a1a:	4709                	li	a4,2
     a1c:	aa91                	j	b70 <toktoi+0x2cc>
     a1e:	85aa                	mv	a1,a0
     a20:	2388                	lbu	a0,0(a5)
     a22:	fd050513          	addi	a0,a0,-48
     a26:	0ff57513          	andi	a0,a0,255
     a2a:	fca377e3          	bgeu	t1,a0,9f8 <toktoi+0x154>
     a2e:	04c00513          	li	a0,76
     a32:	12c56e63          	bltu	a0,a2,b6e <toktoi+0x2ca>
     a36:	00c70533          	add	a0,a4,a2
     a3a:	02400313          	li	t1,36
     a3e:	00650023          	sb	t1,0(a0)
     a42:	00160513          	addi	a0,a2,1
     a46:	00360413          	addi	s0,a2,3
     a4a:	0ff57513          	andi	a0,a0,255
     a4e:	0609                	addi	a2,a2,2
     a50:	953a                	add	a0,a0,a4
     a52:	0ff67613          	andi	a2,a2,255
     a56:	a114                	sb	a3,0(a0)
     a58:	963a                	add	a2,a2,a4
     a5a:	85a1                	srai	a1,a1,0x8
     a5c:	0ff47413          	andi	s0,s0,255
     a60:	a20c                	sb	a1,0(a2)
     a62:	84be                	mv	s1,a5
     a64:	bda9                	j	8be <toktoi+0x1a>
     a66:	02200693          	li	a3,34
     a6a:	00d48663          	beq	s1,a3,a76 <toktoi+0x1d2>
     a6e:	02700693          	li	a3,39
     a72:	08d49163          	bne	s1,a3,af4 <toktoi+0x250>
     a76:	00178513          	addi	a0,a5,1
     a7a:	832a                	mv	t1,a0
     a7c:	4681                	li	a3,0
     a7e:	05e00293          	li	t0,94
     a82:	00030583          	lb	a1,0(t1)
     a86:	00b48763          	beq	s1,a1,a94 <toktoi+0x1f0>
     a8a:	1581                	addi	a1,a1,-32
     a8c:	0ff5f593          	andi	a1,a1,255
     a90:	04b2f463          	bgeu	t0,a1,ad8 <toktoi+0x234>
     a94:	04f00793          	li	a5,79
     a98:	8f95                	sub	a5,a5,a3
     a9a:	0cf65a63          	bge	a2,a5,b6e <toktoi+0x2ca>
     a9e:	00c707b3          	add	a5,a4,a2
     aa2:	00260413          	addi	s0,a2,2
     aa6:	0605                	addi	a2,a2,1
     aa8:	02600593          	li	a1,38
     aac:	0ff47413          	andi	s0,s0,255
     ab0:	0ff67613          	andi	a2,a2,255
     ab4:	a38c                	sb	a1,0(a5)
     ab6:	963a                	add	a2,a2,a4
     ab8:	008687b3          	add	a5,a3,s0
     abc:	a214                	sb	a3,0(a2)
     abe:	0ff7f793          	andi	a5,a5,255
     ac2:	862a                	mv	a2,a0
     ac4:	00060583          	lb	a1,0(a2)
     ac8:	00f41e63          	bne	s0,a5,ae4 <toktoi+0x240>
     acc:	00d507b3          	add	a5,a0,a3
     ad0:	f8b499e3          	bne	s1,a1,a62 <toktoi+0x1be>
     ad4:	0785                	addi	a5,a5,1
     ad6:	b771                	j	a62 <toktoi+0x1be>
     ad8:	00168793          	addi	a5,a3,1
     adc:	0305                	addi	t1,t1,1
     ade:	0ff7f693          	andi	a3,a5,255
     ae2:	b745                	j	a82 <toktoi+0x1de>
     ae4:	00140313          	addi	t1,s0,1
     ae8:	943a                	add	s0,s0,a4
     aea:	a00c                	sb	a1,0(s0)
     aec:	0605                	addi	a2,a2,1
     aee:	0ff37413          	andi	s0,t1,255
     af2:	bfc9                	j	ac4 <toktoi+0x220>
     af4:	8526                	mv	a0,s1
     af6:	c432                	sw	a2,8(sp)
     af8:	c23e                	sw	a5,4(sp)
     afa:	3629                	jal	604 <c_isalpha>
     afc:	c905                	beqz	a0,b2c <toktoi+0x288>
     afe:	4622                	lw	a2,8(sp)
     b00:	04d00693          	li	a3,77
     b04:	06c6e563          	bltu	a3,a2,b6e <toktoi+0x2ca>
     b08:	468d                	li	a3,3
     b0a:	4792                	lw	a5,4(sp)
     b0c:	89c18713          	addi	a4,gp,-1892 # 200001ec <ibuf>
     b10:	02c6f063          	bgeu	a3,a2,b30 <toktoi+0x28c>
     b14:	00c705b3          	add	a1,a4,a2
     b18:	ffe5c683          	lbu	a3,-2(a1)
     b1c:	02500513          	li	a0,37
     b20:	00a69863          	bne	a3,a0,b30 <toktoi+0x28c>
     b24:	ffc5c583          	lbu	a1,-4(a1)
     b28:	00d59463          	bne	a1,a3,b30 <toktoi+0x28c>
     b2c:	4751                	li	a4,20
     b2e:	a089                	j	b70 <toktoi+0x2cc>
     b30:	00c706b3          	add	a3,a4,a2
     b34:	02500593          	li	a1,37
     b38:	8526                	mv	a0,s1
     b3a:	c43e                	sw	a5,8(sp)
     b3c:	c232                	sw	a2,4(sp)
     b3e:	a28c                	sb	a1,0(a3)
     b40:	3c41                	jal	5d0 <c_toupper>
     b42:	4612                	lw	a2,4(sp)
     b44:	89c18713          	addi	a4,gp,-1892 # 200001ec <ibuf>
     b48:	00260413          	addi	s0,a2,2
     b4c:	0605                	addi	a2,a2,1
     b4e:	0ff67613          	andi	a2,a2,255
     b52:	963a                	add	a2,a2,a4
     b54:	fbf50513          	addi	a0,a0,-65
     b58:	0ff47413          	andi	s0,s0,255
     b5c:	a208                	sb	a0,0(a2)
     b5e:	47a2                	lw	a5,8(sp)
     b60:	bf95                	j	ad4 <toktoi+0x230>
     b62:	8432                	mv	s0,a2
     b64:	bbb9                	j	8c2 <toktoi+0x1e>
     b66:	04e00693          	li	a3,78
     b6a:	dc86fce3          	bgeu	a3,s0,942 <toktoi+0x9e>
     b6e:	4711                	li	a4,4
     b70:	86e18e23          	sb	a4,-1924(gp) # 200001cc <err>
     b74:	4501                	li	a0,0
     b76:	0171                	addi	sp,sp,28
     b78:	d32ff06f          	j	aa <__riscv_restore_0>

00000b7c <getsize>:
     b7c:	93c18713          	addi	a4,gp,-1732 # 2000028c <listbuf>
     b80:	93c18513          	addi	a0,gp,-1732 # 2000028c <listbuf>
     b84:	231c                	lbu	a5,0(a4)
     b86:	e799                	bnez	a5,b94 <getsize+0x18>
     b88:	8d19                	sub	a0,a0,a4
     b8a:	1ff50513          	addi	a0,a0,511
     b8e:	0542                	slli	a0,a0,0x10
     b90:	8541                	srai	a0,a0,0x10
     b92:	8082                	ret
     b94:	973e                	add	a4,a4,a5
     b96:	b7fd                	j	b84 <getsize+0x8>

00000b98 <getlineno>:
     b98:	211c                	lbu	a5,0(a0)
     b9a:	cb81                	beqz	a5,baa <getlineno+0x12>
     b9c:	213c                	lbu	a5,2(a0)
     b9e:	3108                	lbu	a0,1(a0)
     ba0:	07a2                	slli	a5,a5,0x8
     ba2:	8d5d                	or	a0,a0,a5
     ba4:	0542                	slli	a0,a0,0x10
     ba6:	8541                	srai	a0,a0,0x10
     ba8:	8082                	ret
     baa:	6521                	lui	a0,0x8
     bac:	157d                	addi	a0,a0,-1
     bae:	8082                	ret

00000bb0 <getlp>:
     bb0:	cf0ff2ef          	jal	t0,a0 <__riscv_save_0>
     bb4:	1171                	addi	sp,sp,-4
     bb6:	87aa                	mv	a5,a0
     bb8:	93c18413          	addi	s0,gp,-1732 # 2000028c <listbuf>
     bbc:	2004                	lbu	s1,0(s0)
     bbe:	e489                	bnez	s1,bc8 <getlp+0x18>
     bc0:	8522                	mv	a0,s0
     bc2:	0111                	addi	sp,sp,4
     bc4:	ce6ff06f          	j	aa <__riscv_restore_0>
     bc8:	8522                	mv	a0,s0
     bca:	c03e                	sw	a5,0(sp)
     bcc:	37f1                	jal	b98 <getlineno>
     bce:	4782                	lw	a5,0(sp)
     bd0:	fef558e3          	bge	a0,a5,bc0 <getlp+0x10>
     bd4:	9426                	add	s0,s0,s1
     bd6:	b7dd                	j	bbc <getlp+0xc>

00000bd8 <inslist>:
     bd8:	cc8ff2ef          	jal	t0,a0 <__riscv_save_0>
     bdc:	1171                	addi	sp,sp,-4
     bde:	3f79                	jal	b7c <getsize>
     be0:	89c1c703          	lbu	a4,-1892(gp) # 200001ec <ibuf>
     be4:	00e55863          	bge	a0,a4,bf4 <inslist+0x1c>
     be8:	4715                	li	a4,5
     bea:	86e18e23          	sb	a4,-1924(gp) # 200001cc <err>
     bee:	0111                	addi	sp,sp,4
     bf0:	cbaff06f          	j	aa <__riscv_restore_0>
     bf4:	89c18513          	addi	a0,gp,-1892 # 200001ec <ibuf>
     bf8:	89c18493          	addi	s1,gp,-1892 # 200001ec <ibuf>
     bfc:	3f71                	jal	b98 <getlineno>
     bfe:	c02a                	sw	a0,0(sp)
     c00:	3f45                	jal	bb0 <getlp>
     c02:	842a                	mv	s0,a0
     c04:	3f51                	jal	b98 <getlineno>
     c06:	4782                	lw	a5,0(sp)
     c08:	02a79763          	bne	a5,a0,c36 <inslist+0x5e>
     c0c:	2018                	lbu	a4,0(s0)
     c0e:	86a2                	mv	a3,s0
     c10:	9722                	add	a4,a4,s0
     c12:	2310                	lbu	a2,0(a4)
     c14:	ce19                	beqz	a2,c32 <inslist+0x5a>
     c16:	4781                	li	a5,0
     c18:	a029                	j	c22 <inslist+0x4a>
     c1a:	00f685b3          	add	a1,a3,a5
     c1e:	a188                	sb	a0,0(a1)
     c20:	0785                	addi	a5,a5,1
     c22:	00f705b3          	add	a1,a4,a5
     c26:	2188                	lbu	a0,0(a1)
     c28:	fef619e3          	bne	a2,a5,c1a <inslist+0x42>
     c2c:	872e                	mv	a4,a1
     c2e:	96b2                	add	a3,a3,a2
     c30:	b7cd                	j	c12 <inslist+0x3a>
     c32:	00068023          	sb	zero,0(a3)
     c36:	208c                	lbu	a1,0(s1)
     c38:	4711                	li	a4,4
     c3a:	87a2                	mv	a5,s0
     c3c:	fae589e3          	beq	a1,a4,bee <inslist+0x16>
     c40:	2398                	lbu	a4,0(a5)
     c42:	e71d                	bnez	a4,c70 <inslist+0x98>
     c44:	408786b3          	sub	a3,a5,s0
     c48:	0685                	addi	a3,a3,1
     c4a:	06c2                	slli	a3,a3,0x10
     c4c:	82c1                	srli	a3,a3,0x10
     c4e:	00e68633          	add	a2,a3,a4
     c52:	0642                	slli	a2,a2,0x10
     c54:	8241                	srli	a2,a2,0x10
     c56:	ee19                	bnez	a2,c74 <inslist+0x9c>
     c58:	2098                	lbu	a4,0(s1)
     c5a:	4781                	li	a5,0
     c5c:	f8f709e3          	beq	a4,a5,bee <inslist+0x16>
     c60:	00f486b3          	add	a3,s1,a5
     c64:	2290                	lbu	a2,0(a3)
     c66:	00f406b3          	add	a3,s0,a5
     c6a:	0785                	addi	a5,a5,1
     c6c:	a290                	sb	a2,0(a3)
     c6e:	b7fd                	j	c5c <inslist+0x84>
     c70:	97ba                	add	a5,a5,a4
     c72:	b7f9                	j	c40 <inslist+0x68>
     c74:	00e78633          	add	a2,a5,a4
     c78:	2208                	lbu	a0,0(a2)
     c7a:	00e58633          	add	a2,a1,a4
     c7e:	963e                	add	a2,a2,a5
     c80:	a208                	sb	a0,0(a2)
     c82:	177d                	addi	a4,a4,-1
     c84:	b7e9                	j	c4e <inslist+0x76>

00000c86 <putlist>:
     c86:	c1aff2ef          	jal	t0,a0 <__riscv_save_0>
     c8a:	1151                	addi	sp,sp,-12
     c8c:	84aa                	mv	s1,a0
     c8e:	2098                	lbu	a4,0(s1)
     c90:	02700693          	li	a3,39
     c94:	04d70863          	beq	a4,a3,ce4 <putlist+0x5e>
     c98:	02300693          	li	a3,35
     c9c:	06e6e063          	bltu	a3,a4,cfc <putlist+0x76>
     ca0:	200006b7          	lui	a3,0x20000
     ca4:	05c68693          	addi	a3,a3,92 # 2000005c <kwtbl>
     ca8:	070a                	slli	a4,a4,0x2
     caa:	9736                	add	a4,a4,a3
     cac:	4308                	lw	a0,0(a4)
     cae:	969ff0ef          	jal	ra,616 <c_puts>
     cb2:	2088                	lbu	a0,0(s1)
     cb4:	658d                	lui	a1,0x3
     cb6:	464d                	li	a2,19
     cb8:	af858593          	addi	a1,a1,-1288 # 2af8 <i_nsa>
     cbc:	8efff0ef          	jal	ra,5aa <sstyle>
     cc0:	e509                	bnez	a0,cca <putlist+0x44>
     cc2:	02000513          	li	a0,32
     cc6:	60b000ef          	jal	ra,1ad0 <video_putch>
     cca:	2094                	lbu	a3,0(s1)
     ccc:	4721                	li	a4,8
     cce:	02e69363          	bne	a3,a4,cf4 <putlist+0x6e>
     cd2:	3080                	lbu	s0,1(s1)
     cd4:	0489                	addi	s1,s1,2
     cd6:	147d                	addi	s0,s0,-1
     cd8:	0ff47413          	andi	s0,s0,255
     cdc:	0ff00793          	li	a5,255
     ce0:	00f41563          	bne	s0,a5,cea <putlist+0x64>
     ce4:	0131                	addi	sp,sp,12
     ce6:	bc4ff06f          	j	aa <__riscv_restore_0>
     cea:	2088                	lbu	a0,0(s1)
     cec:	0485                	addi	s1,s1,1
     cee:	5e3000ef          	jal	ra,1ad0 <video_putch>
     cf2:	b7d5                	j	cd6 <putlist+0x50>
     cf4:	00148413          	addi	s0,s1,1
     cf8:	84a2                	mv	s1,s0
     cfa:	bf51                	j	c8e <putlist+0x8>
     cfc:	02400693          	li	a3,36
     d00:	02d71963          	bne	a4,a3,d32 <putlist+0xac>
     d04:	20a8                	lbu	a0,2(s1)
     d06:	3098                	lbu	a4,1(s1)
     d08:	4581                	li	a1,0
     d0a:	0522                	slli	a0,a0,0x8
     d0c:	8d59                	or	a0,a0,a4
     d0e:	0542                	slli	a0,a0,0x10
     d10:	8541                	srai	a0,a0,0x10
     d12:	3af1                	jal	6ee <putnum>
     d14:	30a8                	lbu	a0,3(s1)
     d16:	678d                	lui	a5,0x3
     d18:	00348413          	addi	s0,s1,3
     d1c:	463d                	li	a2,15
     d1e:	b0c78593          	addi	a1,a5,-1268 # 2b0c <i_nsb>
     d22:	889ff0ef          	jal	ra,5aa <sstyle>
     d26:	f969                	bnez	a0,cf8 <putlist+0x72>
     d28:	02000513          	li	a0,32
     d2c:	5a5000ef          	jal	ra,1ad0 <video_putch>
     d30:	b7e1                	j	cf8 <putlist+0x72>
     d32:	02500693          	li	a3,37
     d36:	02d71163          	bne	a4,a3,d58 <putlist+0xd2>
     d3a:	3088                	lbu	a0,1(s1)
     d3c:	00248413          	addi	s0,s1,2
     d40:	04150513          	addi	a0,a0,65 # 8041 <_data_lma+0x4aa1>
     d44:	0ff57513          	andi	a0,a0,255
     d48:	589000ef          	jal	ra,1ad0 <video_putch>
     d4c:	678d                	lui	a5,0x3
     d4e:	463d                	li	a2,15
     d50:	b0c78593          	addi	a1,a5,-1268 # 2b0c <i_nsb>
     d54:	20a8                	lbu	a0,2(s1)
     d56:	b7f1                	j	d22 <putlist+0x9c>
     d58:	02600693          	li	a3,38
     d5c:	06d71763          	bne	a4,a3,dca <putlist+0x144>
     d60:	3098                	lbu	a4,1(s1)
     d62:	02200693          	li	a3,34
     d66:	9726                	add	a4,a4,s1
     d68:	04e49163          	bne	s1,a4,daa <putlist+0x124>
     d6c:	02200793          	li	a5,34
     d70:	0ff7f793          	andi	a5,a5,255
     d74:	853e                	mv	a0,a5
     d76:	c03e                	sw	a5,0(sp)
     d78:	559000ef          	jal	ra,1ad0 <video_putch>
     d7c:	00248693          	addi	a3,s1,2
     d80:	3084                	lbu	s1,1(s1)
     d82:	87b6                	mv	a5,a3
     d84:	8426                	mv	s0,s1
     d86:	147d                	addi	s0,s0,-1
     d88:	0ff47413          	andi	s0,s0,255
     d8c:	0ff00613          	li	a2,255
     d90:	02c41463          	bne	s0,a2,db8 <putlist+0x132>
     d94:	4502                	lw	a0,0(sp)
     d96:	00968433          	add	s0,a3,s1
     d9a:	537000ef          	jal	ra,1ad0 <video_putch>
     d9e:	2018                	lbu	a4,0(s0)
     da0:	02500793          	li	a5,37
     da4:	f4f71ae3          	bne	a4,a5,cf8 <putlist+0x72>
     da8:	b741                	j	d28 <putlist+0xa2>
     daa:	177d                	addi	a4,a4,-1
     dac:	2330                	lbu	a2,2(a4)
     dae:	fad61de3          	bne	a2,a3,d68 <putlist+0xe2>
     db2:	02700793          	li	a5,39
     db6:	bf6d                	j	d70 <putlist+0xea>
     db8:	2388                	lbu	a0,0(a5)
     dba:	c436                	sw	a3,8(sp)
     dbc:	c23e                	sw	a5,4(sp)
     dbe:	513000ef          	jal	ra,1ad0 <video_putch>
     dc2:	4792                	lw	a5,4(sp)
     dc4:	46a2                	lw	a3,8(sp)
     dc6:	0785                	addi	a5,a5,1
     dc8:	bf7d                	j	d86 <putlist+0x100>
     dca:	4755                	li	a4,21
     dcc:	86e18e23          	sb	a4,-1924(gp) # 200001cc <err>
     dd0:	bf11                	j	ce4 <putlist+0x5e>

00000dd2 <iexp>:
     dd2:	aceff2ef          	jal	t0,a0 <__riscv_save_0>
     dd6:	240d                	jal	ff8 <iplus>
     dd8:	87c1c783          	lbu	a5,-1924(gp) # 200001cc <err>
     ddc:	547d                	li	s0,-1
     dde:	e3bd                	bnez	a5,e44 <iexp+0x72>
     de0:	842a                	mv	s0,a0
     de2:	8741a703          	lw	a4,-1932(gp) # 200001c4 <cip>
     de6:	4615                	li	a2,5
     de8:	87418693          	addi	a3,gp,-1932 # 200001c4 <cip>
     dec:	231c                	lbu	a5,0(a4)
     dee:	17ad                	addi	a5,a5,-21
     df0:	0ff7f793          	andi	a5,a5,255
     df4:	04f66863          	bltu	a2,a5,e44 <iexp+0x72>
     df8:	660d                	lui	a2,0x3
     dfa:	99460613          	addi	a2,a2,-1644 # 2994 <PS2Keymap_Japanese+0x19c>
     dfe:	078a                	slli	a5,a5,0x2
     e00:	97b2                	add	a5,a5,a2
     e02:	4390                	lw	a2,0(a5)
     e04:	00170793          	addi	a5,a4,1
     e08:	c29c                	sw	a5,0(a3)
     e0a:	8602                	jr	a2
     e0c:	22f5                	jal	ff8 <iplus>
     e0e:	8c09                	sub	s0,s0,a0
     e10:	00143413          	seqz	s0,s0
     e14:	b7f9                	j	de2 <iexp+0x10>
     e16:	22cd                	jal	ff8 <iplus>
     e18:	8c09                	sub	s0,s0,a0
     e1a:	00803433          	snez	s0,s0
     e1e:	b7d1                	j	de2 <iexp+0x10>
     e20:	2ae1                	jal	ff8 <iplus>
     e22:	00a42433          	slt	s0,s0,a0
     e26:	bf75                	j	de2 <iexp+0x10>
     e28:	2ac1                	jal	ff8 <iplus>
     e2a:	00852433          	slt	s0,a0,s0
     e2e:	00144413          	xori	s0,s0,1
     e32:	bf45                	j	de2 <iexp+0x10>
     e34:	22d1                	jal	ff8 <iplus>
     e36:	00852433          	slt	s0,a0,s0
     e3a:	b765                	j	de2 <iexp+0x10>
     e3c:	2a75                	jal	ff8 <iplus>
     e3e:	00a42433          	slt	s0,s0,a0
     e42:	b7f5                	j	e2e <iexp+0x5c>
     e44:	8522                	mv	a0,s0
     e46:	a64ff06f          	j	aa <__riscv_restore_0>

00000e4a <getparam>:
     e4a:	a56ff2ef          	jal	t0,a0 <__riscv_save_0>
     e4e:	87418413          	addi	s0,gp,-1932 # 200001c4 <cip>
     e52:	401c                	lw	a5,0(s0)
     e54:	474d                	li	a4,19
     e56:	2394                	lbu	a3,0(a5)
     e58:	87c18493          	addi	s1,gp,-1924 # 200001cc <err>
     e5c:	00e68663          	beq	a3,a4,e68 <getparam+0x1e>
     e60:	47c5                	li	a5,17
     e62:	a09c                	sb	a5,0(s1)
     e64:	4501                	li	a0,0
     e66:	a829                	j	e80 <getparam+0x36>
     e68:	0785                	addi	a5,a5,1
     e6a:	c01c                	sw	a5,0(s0)
     e6c:	379d                	jal	dd2 <iexp>
     e6e:	209c                	lbu	a5,0(s1)
     e70:	fbf5                	bnez	a5,e64 <getparam+0x1a>
     e72:	401c                	lw	a5,0(s0)
     e74:	4751                	li	a4,20
     e76:	2394                	lbu	a3,0(a5)
     e78:	fee694e3          	bne	a3,a4,e60 <getparam+0x16>
     e7c:	0785                	addi	a5,a5,1
     e7e:	c01c                	sw	a5,0(s0)
     e80:	a2aff06f          	j	aa <__riscv_restore_0>

00000e84 <ivalue>:
     e84:	a1cff2ef          	jal	t0,a0 <__riscv_save_0>
     e88:	660d                	lui	a2,0x3
     e8a:	1171                	addi	sp,sp,-4
     e8c:	4581                	li	a1,0
     e8e:	4405                	li	s0,1
     e90:	4359                	li	t1,22
     e92:	9ac60613          	addi	a2,a2,-1620 # 29ac <PS2Keymap_Japanese+0x1b4>
     e96:	8741a783          	lw	a5,-1932(gp) # 200001c4 <cip>
     e9a:	87418713          	addi	a4,gp,-1932 # 200001c4 <cip>
     e9e:	2394                	lbu	a3,0(a5)
     ea0:	16c5                	addi	a3,a3,-15
     ea2:	0ff6f693          	andi	a3,a3,255
     ea6:	0ed36963          	bltu	t1,a3,f98 <ivalue+0x114>
     eaa:	068a                	slli	a3,a3,0x2
     eac:	96b2                	add	a3,a3,a2
     eae:	4294                	lw	a3,0(a3)
     eb0:	8682                	jr	a3
     eb2:	00178693          	addi	a3,a5,1
     eb6:	c314                	sw	a3,0(a4)
     eb8:	23ac                	lbu	a1,2(a5)
     eba:	3394                	lbu	a3,1(a5)
     ebc:	078d                	addi	a5,a5,3
     ebe:	05a2                	slli	a1,a1,0x8
     ec0:	8dd5                	or	a1,a1,a3
     ec2:	05c2                	slli	a1,a1,0x10
     ec4:	85c1                	srai	a1,a1,0x10
     ec6:	c31c                	sw	a5,0(a4)
     ec8:	8522                	mv	a0,s0
     eca:	9eaff0ef          	jal	ra,b4 <__mulsi3>
     ece:	0542                	slli	a0,a0,0x10
     ed0:	8541                	srai	a0,a0,0x10
     ed2:	0111                	addi	sp,sp,4
     ed4:	9d6ff06f          	j	aa <__riscv_restore_0>
     ed8:	0785                	addi	a5,a5,1
     eda:	c31c                	sw	a5,0(a4)
     edc:	bf6d                	j	e96 <ivalue+0x12>
     ede:	40800433          	neg	s0,s0
     ee2:	0785                	addi	a5,a5,1
     ee4:	0442                	slli	s0,s0,0x10
     ee6:	c31c                	sw	a5,0(a4)
     ee8:	8441                	srai	s0,s0,0x10
     eea:	b775                	j	e96 <ivalue+0x12>
     eec:	00278693          	addi	a3,a5,2
     ef0:	c314                	sw	a3,0(a4)
     ef2:	339c                	lbu	a5,1(a5)
     ef4:	00179713          	slli	a4,a5,0x1
     ef8:	b7c18793          	addi	a5,gp,-1156 # 200004cc <var>
     efc:	97ba                	add	a5,a5,a4
     efe:	00079583          	lh	a1,0(a5)
     f02:	b7d9                	j	ec8 <ivalue+0x44>
     f04:	3799                	jal	e4a <getparam>
     f06:	85aa                	mv	a1,a0
     f08:	b7c1                	j	ec8 <ivalue+0x44>
     f0a:	0785                	addi	a5,a5,1
     f0c:	c31c                	sw	a5,0(a4)
     f0e:	3f35                	jal	e4a <getparam>
     f10:	87c18793          	addi	a5,gp,-1924 # 200001cc <err>
     f14:	2398                	lbu	a4,0(a5)
     f16:	85aa                	mv	a1,a0
     f18:	fb45                	bnez	a4,ec8 <ivalue+0x44>
     f1a:	477d                	li	a4,31
     f1c:	00a75563          	bge	a4,a0,f26 <ivalue+0xa2>
     f20:	470d                	li	a4,3
     f22:	a398                	sb	a4,0(a5)
     f24:	b755                	j	ec8 <ivalue+0x44>
     f26:	00151793          	slli	a5,a0,0x1
     f2a:	83418593          	addi	a1,gp,-1996 # 20000184 <arr>
     f2e:	95be                	add	a1,a1,a5
     f30:	00059583          	lh	a1,0(a1)
     f34:	bf51                	j	ec8 <ivalue+0x44>
     f36:	0785                	addi	a5,a5,1
     f38:	c31c                	sw	a5,0(a4)
     f3a:	3f01                	jal	e4a <getparam>
     f3c:	87c1c783          	lbu	a5,-1924(gp) # 200001cc <err>
     f40:	85aa                	mv	a1,a0
     f42:	f3d9                	bnez	a5,ec8 <ivalue+0x44>
     f44:	c02a                	sw	a0,0(sp)
     f46:	770010ef          	jal	ra,26b6 <random>
     f4a:	4582                	lw	a1,0(sp)
     f4c:	9d8ff0ef          	jal	ra,124 <__modsi3>
     f50:	01051593          	slli	a1,a0,0x10
     f54:	85c1                	srai	a1,a1,0x10
     f56:	bf8d                	j	ec8 <ivalue+0x44>
     f58:	0785                	addi	a5,a5,1
     f5a:	c31c                	sw	a5,0(a4)
     f5c:	35fd                	jal	e4a <getparam>
     f5e:	87c1c783          	lbu	a5,-1924(gp) # 200001cc <err>
     f62:	85aa                	mv	a1,a0
     f64:	f3b5                	bnez	a5,ec8 <ivalue+0x44>
     f66:	f60551e3          	bgez	a0,ec8 <ivalue+0x44>
     f6a:	40a005b3          	neg	a1,a0
     f6e:	05c2                	slli	a1,a1,0x10
     f70:	b7d5                	j	f54 <ivalue+0xd0>
     f72:	00178693          	addi	a3,a5,1
     f76:	c314                	sw	a3,0(a4)
     f78:	3390                	lbu	a2,1(a5)
     f7a:	46cd                	li	a3,19
     f7c:	00d61663          	bne	a2,a3,f88 <ivalue+0x104>
     f80:	23b0                	lbu	a2,2(a5)
     f82:	46d1                	li	a3,20
     f84:	00d60663          	beq	a2,a3,f90 <ivalue+0x10c>
     f88:	4745                	li	a4,17
     f8a:	86e18e23          	sb	a4,-1924(gp) # 200001cc <err>
     f8e:	bf2d                	j	ec8 <ivalue+0x44>
     f90:	078d                	addi	a5,a5,3
     f92:	c31c                	sw	a5,0(a4)
     f94:	36e5                	jal	b7c <getsize>
     f96:	bf85                	j	f06 <ivalue+0x82>
     f98:	4751                	li	a4,20
     f9a:	bfc5                	j	f8a <ivalue+0x106>

00000f9c <imul>:
     f9c:	904ff2ef          	jal	t0,a0 <__riscv_save_0>
     fa0:	35d5                	jal	e84 <ivalue>
     fa2:	87c1c703          	lbu	a4,-1924(gp) # 200001cc <err>
     fa6:	84aa                	mv	s1,a0
     fa8:	87c18413          	addi	s0,gp,-1924 # 200001cc <err>
     fac:	e321                	bnez	a4,fec <imul+0x50>
     fae:	87418693          	addi	a3,gp,-1932 # 200001c4 <cip>
     fb2:	4298                	lw	a4,0(a3)
     fb4:	45c5                	li	a1,17
     fb6:	2310                	lbu	a2,0(a4)
     fb8:	00b60863          	beq	a2,a1,fc8 <imul+0x2c>
     fbc:	45c9                	li	a1,18
     fbe:	02b60063          	beq	a2,a1,fde <imul+0x42>
     fc2:	8526                	mv	a0,s1
     fc4:	8e6ff06f          	j	aa <__riscv_restore_0>
     fc8:	0705                	addi	a4,a4,1
     fca:	c298                	sw	a4,0(a3)
     fcc:	3d65                	jal	e84 <ivalue>
     fce:	85aa                	mv	a1,a0
     fd0:	8526                	mv	a0,s1
     fd2:	8e2ff0ef          	jal	ra,b4 <__mulsi3>
     fd6:	01051493          	slli	s1,a0,0x10
     fda:	84c1                	srai	s1,s1,0x10
     fdc:	bfc9                	j	fae <imul+0x12>
     fde:	0705                	addi	a4,a4,1
     fe0:	c298                	sw	a4,0(a3)
     fe2:	354d                	jal	e84 <ivalue>
     fe4:	85aa                	mv	a1,a0
     fe6:	e509                	bnez	a0,ff0 <imul+0x54>
     fe8:	4785                	li	a5,1
     fea:	a01c                	sb	a5,0(s0)
     fec:	54fd                	li	s1,-1
     fee:	bfd1                	j	fc2 <imul+0x26>
     ff0:	8526                	mv	a0,s1
     ff2:	8daff0ef          	jal	ra,cc <__divsi3>
     ff6:	b7c5                	j	fd6 <imul+0x3a>

00000ff8 <iplus>:
     ff8:	8a8ff2ef          	jal	t0,a0 <__riscv_save_0>
     ffc:	3745                	jal	f9c <imul>
     ffe:	87c1c783          	lbu	a5,-1924(gp) # 200001cc <err>
    1002:	547d                	li	s0,-1
    1004:	eb85                	bnez	a5,1034 <iplus+0x3c>
    1006:	842a                	mv	s0,a0
    1008:	87418713          	addi	a4,gp,-1932 # 200001c4 <cip>
    100c:	431c                	lw	a5,0(a4)
    100e:	463d                	li	a2,15
    1010:	2394                	lbu	a3,0(a5)
    1012:	00c68c63          	beq	a3,a2,102a <iplus+0x32>
    1016:	4641                	li	a2,16
    1018:	00c69e63          	bne	a3,a2,1034 <iplus+0x3c>
    101c:	0785                	addi	a5,a5,1
    101e:	c31c                	sw	a5,0(a4)
    1020:	3fb5                	jal	f9c <imul>
    1022:	942a                	add	s0,s0,a0
    1024:	0442                	slli	s0,s0,0x10
    1026:	8441                	srai	s0,s0,0x10
    1028:	b7c5                	j	1008 <iplus+0x10>
    102a:	0785                	addi	a5,a5,1
    102c:	c31c                	sw	a5,0(a4)
    102e:	37bd                	jal	f9c <imul>
    1030:	8c09                	sub	s0,s0,a0
    1032:	bfcd                	j	1024 <iplus+0x2c>
    1034:	8522                	mv	a0,s0
    1036:	874ff06f          	j	aa <__riscv_restore_0>

0000103a <iprint>:
    103a:	866ff2ef          	jal	t0,a0 <__riscv_save_0>
    103e:	1171                	addi	sp,sp,-4
    1040:	4481                	li	s1,0
    1042:	8741a783          	lw	a5,-1932(gp) # 200001c4 <cip>
    1046:	46b9                	li	a3,14
    1048:	87418413          	addi	s0,gp,-1932 # 200001c4 <cip>
    104c:	2398                	lbu	a4,0(a5)
    104e:	00d70663          	beq	a4,a3,105a <iprint+0x20>
    1052:	02700693          	li	a3,39
    1056:	00d71563          	bne	a4,a3,1060 <iprint+0x26>
    105a:	2e3000ef          	jal	ra,1b3c <video_newline>
    105e:	a0ad                	j	10c8 <iprint+0x8e>
    1060:	46d9                	li	a3,22
    1062:	04d70c63          	beq	a4,a3,10ba <iprint+0x80>
    1066:	02600693          	li	a3,38
    106a:	06d71263          	bne	a4,a3,10ce <iprint+0x94>
    106e:	00278713          	addi	a4,a5,2
    1072:	c018                	sw	a4,0(s0)
    1074:	339c                	lbu	a5,1(a5)
    1076:	17fd                	addi	a5,a5,-1
    1078:	0ff7f793          	andi	a5,a5,255
    107c:	0ff00693          	li	a3,255
    1080:	4018                	lw	a4,0(s0)
    1082:	02d79363          	bne	a5,a3,10a8 <iprint+0x6e>
    1086:	4018                	lw	a4,0(s0)
    1088:	46b5                	li	a3,13
    108a:	231c                	lbu	a5,0(a4)
    108c:	04d79963          	bne	a5,a3,10de <iprint+0xa4>
    1090:	00170793          	addi	a5,a4,1
    1094:	c01c                	sw	a5,0(s0)
    1096:	331c                	lbu	a5,1(a4)
    1098:	4739                	li	a4,14
    109a:	02e78763          	beq	a5,a4,10c8 <iprint+0x8e>
    109e:	02700713          	li	a4,39
    10a2:	fae790e3          	bne	a5,a4,1042 <iprint+0x8>
    10a6:	a00d                	j	10c8 <iprint+0x8e>
    10a8:	00170693          	addi	a3,a4,1
    10ac:	c014                	sw	a3,0(s0)
    10ae:	2308                	lbu	a0,0(a4)
    10b0:	c03e                	sw	a5,0(sp)
    10b2:	21f000ef          	jal	ra,1ad0 <video_putch>
    10b6:	4782                	lw	a5,0(sp)
    10b8:	bf7d                	j	1076 <iprint+0x3c>
    10ba:	0785                	addi	a5,a5,1
    10bc:	c01c                	sw	a5,0(s0)
    10be:	3b11                	jal	dd2 <iexp>
    10c0:	87c1c783          	lbu	a5,-1924(gp) # 200001cc <err>
    10c4:	84aa                	mv	s1,a0
    10c6:	d3e1                	beqz	a5,1086 <iprint+0x4c>
    10c8:	0111                	addi	sp,sp,4
    10ca:	fe1fe06f          	j	aa <__riscv_restore_0>
    10ce:	3311                	jal	dd2 <iexp>
    10d0:	87c1c783          	lbu	a5,-1924(gp) # 200001cc <err>
    10d4:	fbf5                	bnez	a5,10c8 <iprint+0x8e>
    10d6:	85a6                	mv	a1,s1
    10d8:	e16ff0ef          	jal	ra,6ee <putnum>
    10dc:	b76d                	j	1086 <iprint+0x4c>
    10de:	4739                	li	a4,14
    10e0:	f6e781e3          	beq	a5,a4,1042 <iprint+0x8>
    10e4:	02700713          	li	a4,39
    10e8:	f4e78de3          	beq	a5,a4,1042 <iprint+0x8>
    10ec:	4751                	li	a4,20
    10ee:	86e18e23          	sb	a4,-1924(gp) # 200001cc <err>
    10f2:	bfd9                	j	10c8 <iprint+0x8e>

000010f4 <iinput>:
    10f4:	fadfe2ef          	jal	t0,a0 <__riscv_save_0>
    10f8:	1161                	addi	sp,sp,-8
    10fa:	8741a783          	lw	a5,-1932(gp) # 200001c4 <cip>
    10fe:	02600693          	li	a3,38
    1102:	87418413          	addi	s0,gp,-1932 # 200001c4 <cip>
    1106:	2390                	lbu	a2,0(a5)
    1108:	4705                	li	a4,1
    110a:	00d61f63          	bne	a2,a3,1128 <iinput+0x34>
    110e:	00278713          	addi	a4,a5,2
    1112:	c018                	sw	a4,0(s0)
    1114:	3384                	lbu	s1,1(a5)
    1116:	14fd                	addi	s1,s1,-1
    1118:	0ff4f493          	andi	s1,s1,255
    111c:	0ff00713          	li	a4,255
    1120:	401c                	lw	a5,0(s0)
    1122:	06e49d63          	bne	s1,a4,119c <iinput+0xa8>
    1126:	4701                	li	a4,0
    1128:	401c                	lw	a5,0(s0)
    112a:	87c18593          	addi	a1,gp,-1924 # 200001cc <err>
    112e:	2394                	lbu	a3,0(a5)
    1130:	466d                	li	a2,27
    1132:	c02e                	sw	a1,0(sp)
    1134:	06c68b63          	beq	a3,a2,11aa <iinput+0xb6>
    1138:	02500613          	li	a2,37
    113c:	0cc69663          	bne	a3,a2,1208 <iinput+0x114>
    1140:	00178693          	addi	a3,a5,1
    1144:	c014                	sw	a3,0(s0)
    1146:	cf01                	beqz	a4,115e <iinput+0x6a>
    1148:	3388                	lbu	a0,1(a5)
    114a:	04150513          	addi	a0,a0,65
    114e:	0ff57513          	andi	a0,a0,255
    1152:	17f000ef          	jal	ra,1ad0 <video_putch>
    1156:	03a00513          	li	a0,58
    115a:	177000ef          	jal	ra,1ad0 <video_putch>
    115e:	e3aff0ef          	jal	ra,798 <getnum>
    1162:	4782                	lw	a5,0(sp)
    1164:	239c                	lbu	a5,0(a5)
    1166:	e3ad                	bnez	a5,11c8 <iinput+0xd4>
    1168:	401c                	lw	a5,0(s0)
    116a:	00178713          	addi	a4,a5,1
    116e:	c018                	sw	a4,0(s0)
    1170:	239c                	lbu	a5,0(a5)
    1172:	00179713          	slli	a4,a5,0x1
    1176:	b7c18793          	addi	a5,gp,-1156 # 200004cc <var>
    117a:	97ba                	add	a5,a5,a4
    117c:	a38a                	sh	a0,0(a5)
    117e:	401c                	lw	a5,0(s0)
    1180:	46b9                	li	a3,14
    1182:	2398                	lbu	a4,0(a5)
    1184:	04d70263          	beq	a4,a3,11c8 <iinput+0xd4>
    1188:	02700693          	li	a3,39
    118c:	02d70e63          	beq	a4,a3,11c8 <iinput+0xd4>
    1190:	46b5                	li	a3,13
    1192:	06d71b63          	bne	a4,a3,1208 <iinput+0x114>
    1196:	0785                	addi	a5,a5,1
    1198:	c01c                	sw	a5,0(s0)
    119a:	b785                	j	10fa <iinput+0x6>
    119c:	00178713          	addi	a4,a5,1
    11a0:	c018                	sw	a4,0(s0)
    11a2:	2388                	lbu	a0,0(a5)
    11a4:	12d000ef          	jal	ra,1ad0 <video_putch>
    11a8:	b7bd                	j	1116 <iinput+0x22>
    11aa:	0785                	addi	a5,a5,1
    11ac:	c01c                	sw	a5,0(s0)
    11ae:	c23a                	sw	a4,4(sp)
    11b0:	3969                	jal	e4a <getparam>
    11b2:	4782                	lw	a5,0(sp)
    11b4:	84aa                	mv	s1,a0
    11b6:	239c                	lbu	a5,0(a5)
    11b8:	eb81                	bnez	a5,11c8 <iinput+0xd4>
    11ba:	47fd                	li	a5,31
    11bc:	4712                	lw	a4,4(sp)
    11be:	00a7d863          	bge	a5,a0,11ce <iinput+0xda>
    11c2:	478d                	li	a5,3
    11c4:	4702                	lw	a4,0(sp)
    11c6:	a31c                	sb	a5,0(a4)
    11c8:	0121                	addi	sp,sp,8
    11ca:	ee1fe06f          	j	aa <__riscv_restore_0>
    11ce:	c30d                	beqz	a4,11f0 <iinput+0xfc>
    11d0:	00003537          	lui	a0,0x3
    11d4:	b1c50513          	addi	a0,a0,-1252 # 2b1c <i_nsb+0x10>
    11d8:	c3eff0ef          	jal	ra,616 <c_puts>
    11dc:	8526                	mv	a0,s1
    11de:	4581                	li	a1,0
    11e0:	d0eff0ef          	jal	ra,6ee <putnum>
    11e4:	00003537          	lui	a0,0x3
    11e8:	b2050513          	addi	a0,a0,-1248 # 2b20 <i_nsb+0x14>
    11ec:	c2aff0ef          	jal	ra,616 <c_puts>
    11f0:	da8ff0ef          	jal	ra,798 <getnum>
    11f4:	4782                	lw	a5,0(sp)
    11f6:	239c                	lbu	a5,0(a5)
    11f8:	fbe1                	bnez	a5,11c8 <iinput+0xd4>
    11fa:	00149793          	slli	a5,s1,0x1
    11fe:	83418493          	addi	s1,gp,-1996 # 20000184 <arr>
    1202:	94be                	add	s1,s1,a5
    1204:	a08a                	sh	a0,0(s1)
    1206:	bfa5                	j	117e <iinput+0x8a>
    1208:	47d1                	li	a5,20
    120a:	bf6d                	j	11c4 <iinput+0xd0>

0000120c <ivar>:
    120c:	e95fe2ef          	jal	t0,a0 <__riscv_save_0>
    1210:	87418713          	addi	a4,gp,-1932 # 200001c4 <cip>
    1214:	431c                	lw	a5,0(a4)
    1216:	87c18413          	addi	s0,gp,-1924 # 200001cc <err>
    121a:	00178693          	addi	a3,a5,1
    121e:	c314                	sw	a3,0(a4)
    1220:	3390                	lbu	a2,1(a5)
    1222:	46e1                	li	a3,24
    1224:	00d60663          	beq	a2,a3,1230 <ivar+0x24>
    1228:	47c9                	li	a5,18
    122a:	a01c                	sb	a5,0(s0)
    122c:	e7ffe06f          	j	aa <__riscv_restore_0>
    1230:	2384                	lbu	s1,0(a5)
    1232:	0789                	addi	a5,a5,2
    1234:	c31c                	sw	a5,0(a4)
    1236:	3e71                	jal	dd2 <iexp>
    1238:	201c                	lbu	a5,0(s0)
    123a:	fbed                	bnez	a5,122c <ivar+0x20>
    123c:	0486                	slli	s1,s1,0x1
    123e:	b7c18793          	addi	a5,gp,-1156 # 200004cc <var>
    1242:	97a6                	add	a5,a5,s1
    1244:	a38a                	sh	a0,0(a5)
    1246:	b7dd                	j	122c <ivar+0x20>

00001248 <iarray>:
    1248:	e59fe2ef          	jal	t0,a0 <__riscv_save_0>
    124c:	3efd                	jal	e4a <getparam>
    124e:	87c18413          	addi	s0,gp,-1924 # 200001cc <err>
    1252:	201c                	lbu	a5,0(s0)
    1254:	e799                	bnez	a5,1262 <iarray+0x1a>
    1256:	47fd                	li	a5,31
    1258:	84aa                	mv	s1,a0
    125a:	00a7d663          	bge	a5,a0,1266 <iarray+0x1e>
    125e:	478d                	li	a5,3
    1260:	a01c                	sb	a5,0(s0)
    1262:	e49fe06f          	j	aa <__riscv_restore_0>
    1266:	87418793          	addi	a5,gp,-1932 # 200001c4 <cip>
    126a:	4398                	lw	a4,0(a5)
    126c:	46e1                	li	a3,24
    126e:	2310                	lbu	a2,0(a4)
    1270:	00d60463          	beq	a2,a3,1278 <iarray+0x30>
    1274:	47c9                	li	a5,18
    1276:	b7ed                	j	1260 <iarray+0x18>
    1278:	0705                	addi	a4,a4,1
    127a:	c398                	sw	a4,0(a5)
    127c:	b57ff0ef          	jal	ra,dd2 <iexp>
    1280:	201c                	lbu	a5,0(s0)
    1282:	f3e5                	bnez	a5,1262 <iarray+0x1a>
    1284:	0486                	slli	s1,s1,0x1
    1286:	83418793          	addi	a5,gp,-1996 # 20000184 <arr>
    128a:	97a6                	add	a5,a5,s1
    128c:	a38a                	sh	a0,0(a5)
    128e:	bfd1                	j	1262 <iarray+0x1a>

00001290 <ilet>:
    1290:	e11fe2ef          	jal	t0,a0 <__riscv_save_0>
    1294:	87418713          	addi	a4,gp,-1932 # 200001c4 <cip>
    1298:	431c                	lw	a5,0(a4)
    129a:	466d                	li	a2,27
    129c:	2394                	lbu	a3,0(a5)
    129e:	00c68b63          	beq	a3,a2,12b4 <ilet+0x24>
    12a2:	02500613          	li	a2,37
    12a6:	00c69b63          	bne	a3,a2,12bc <ilet+0x2c>
    12aa:	0785                	addi	a5,a5,1
    12ac:	c31c                	sw	a5,0(a4)
    12ae:	3fb9                	jal	120c <ivar>
    12b0:	dfbfe06f          	j	aa <__riscv_restore_0>
    12b4:	0785                	addi	a5,a5,1
    12b6:	c31c                	sw	a5,0(a4)
    12b8:	3f41                	jal	1248 <iarray>
    12ba:	bfdd                	j	12b0 <ilet+0x20>
    12bc:	4739                	li	a4,14
    12be:	86e18e23          	sb	a4,-1924(gp) # 200001cc <err>
    12c2:	b7fd                	j	12b0 <ilet+0x20>

000012c4 <iexe>:
    12c4:	dddfe2ef          	jal	t0,a0 <__riscv_save_0>
    12c8:	1161                	addi	sp,sp,-8
    12ca:	8741a783          	lw	a5,-1932(gp) # 200001c4 <cip>
    12ce:	87418413          	addi	s0,gp,-1932 # 200001c4 <cip>
    12d2:	2394                	lbu	a3,0(a5)
    12d4:	02700793          	li	a5,39
    12d8:	00f68d63          	beq	a3,a5,12f2 <iexe+0x2e>
    12dc:	9caff0ef          	jal	ra,4a6 <kbd_available>
    12e0:	cd11                	beqz	a0,12fc <iexe+0x38>
    12e2:	9e6ff0ef          	jal	ra,4c8 <kbd_read>
    12e6:	47ed                	li	a5,27
    12e8:	00f51a63          	bne	a0,a5,12fc <iexe+0x38>
    12ec:	4759                	li	a4,22
    12ee:	86e18e23          	sb	a4,-1924(gp) # 200001cc <err>
    12f2:	8781a503          	lw	a0,-1928(gp) # 200001c8 <clp>
    12f6:	211c                	lbu	a5,0(a0)
    12f8:	953e                	add	a0,a0,a5
    12fa:	a025                	j	1322 <iexe+0x5e>
    12fc:	401c                	lw	a5,0(s0)
    12fe:	02500613          	li	a2,37
    1302:	2394                	lbu	a3,0(a5)
    1304:	30d66263          	bltu	a2,a3,1608 <iexe+0x344>
    1308:	660d                	lui	a2,0x3
    130a:	068a                	slli	a3,a3,0x2
    130c:	a0860613          	addi	a2,a2,-1528 # 2a08 <PS2Keymap_Japanese+0x210>
    1310:	96b2                	add	a3,a3,a2
    1312:	4294                	lw	a3,0(a3)
    1314:	8682                	jr	a3
    1316:	87818713          	addi	a4,gp,-1928 # 200001c8 <clp>
    131a:	4308                	lw	a0,0(a4)
    131c:	211c                	lbu	a5,0(a0)
    131e:	2a079763          	bnez	a5,15cc <iexe+0x308>
    1322:	0121                	addi	sp,sp,8
    1324:	d87fe06f          	j	aa <__riscv_restore_0>
    1328:	0785                	addi	a5,a5,1
    132a:	c01c                	sw	a5,0(s0)
    132c:	aa7ff0ef          	jal	ra,dd2 <iexp>
    1330:	87c1c683          	lbu	a3,-1924(gp) # 200001cc <err>
    1334:	eeb1                	bnez	a3,1390 <iexe+0xcc>
    1336:	c02a                	sw	a0,0(sp)
    1338:	879ff0ef          	jal	ra,bb0 <getlp>
    133c:	84aa                	mv	s1,a0
    133e:	85bff0ef          	jal	ra,b98 <getlineno>
    1342:	4782                	lw	a5,0(sp)
    1344:	00f50663          	beq	a0,a5,1350 <iexe+0x8c>
    1348:	4741                	li	a4,16
    134a:	86e18e23          	sb	a4,-1924(gp) # 200001cc <err>
    134e:	a089                	j	1390 <iexe+0xcc>
    1350:	8691ac23          	sw	s1,-1928(gp) # 200001c8 <clp>
    1354:	048d                	addi	s1,s1,3
    1356:	c004                	sw	s1,0(s0)
    1358:	bf8d                	j	12ca <iexe+0x6>
    135a:	0785                	addi	a5,a5,1
    135c:	c01c                	sw	a5,0(s0)
    135e:	a75ff0ef          	jal	ra,dd2 <iexp>
    1362:	87c18693          	addi	a3,gp,-1924 # 200001cc <err>
    1366:	2290                	lbu	a2,0(a3)
    1368:	e605                	bnez	a2,1390 <iexe+0xcc>
    136a:	c02a                	sw	a0,0(sp)
    136c:	845ff0ef          	jal	ra,bb0 <getlp>
    1370:	84aa                	mv	s1,a0
    1372:	827ff0ef          	jal	ra,b98 <getlineno>
    1376:	4782                	lw	a5,0(sp)
    1378:	87c18693          	addi	a3,gp,-1924 # 200001cc <err>
    137c:	fcf516e3          	bne	a0,a5,1348 <iexe+0x84>
    1380:	89818593          	addi	a1,gp,-1896 # 200001e8 <gstki>
    1384:	219c                	lbu	a5,0(a1)
    1386:	4611                	li	a2,4
    1388:	00f67663          	bgeu	a2,a5,1394 <iexe+0xd0>
    138c:	4799                	li	a5,6
    138e:	a29c                	sb	a5,0(a3)
    1390:	4501                	li	a0,0
    1392:	bf41                	j	1322 <iexe+0x5e>
    1394:	87818613          	addi	a2,gp,-1928 # 200001c8 <clp>
    1398:	00062303          	lw	t1,0(a2)
    139c:	88018693          	addi	a3,gp,-1920 # 200001d0 <gstk>
    13a0:	00279513          	slli	a0,a5,0x2
    13a4:	9536                	add	a0,a0,a3
    13a6:	00652023          	sw	t1,0(a0)
    13aa:	00278513          	addi	a0,a5,2
    13ae:	0785                	addi	a5,a5,1
    13b0:	0ff7f793          	andi	a5,a5,255
    13b4:	078a                	slli	a5,a5,0x2
    13b6:	97b6                	add	a5,a5,a3
    13b8:	4014                	lw	a3,0(s0)
    13ba:	a188                	sb	a0,0(a1)
    13bc:	00348513          	addi	a0,s1,3
    13c0:	c394                	sw	a3,0(a5)
    13c2:	c204                	sw	s1,0(a2)
    13c4:	c008                	sw	a0,0(s0)
    13c6:	b711                	j	12ca <iexe+0x6>
    13c8:	89818593          	addi	a1,gp,-1896 # 200001e8 <gstki>
    13cc:	219c                	lbu	a5,0(a1)
    13ce:	4685                	li	a3,1
    13d0:	00f6e463          	bltu	a3,a5,13d8 <iexe+0x114>
    13d4:	471d                	li	a4,7
    13d6:	bf95                	j	134a <iexe+0x86>
    13d8:	fff78693          	addi	a3,a5,-1
    13dc:	0ff6f693          	andi	a3,a3,255
    13e0:	17f9                	addi	a5,a5,-2
    13e2:	88018613          	addi	a2,gp,-1920 # 200001d0 <gstk>
    13e6:	0ff7f793          	andi	a5,a5,255
    13ea:	068a                	slli	a3,a3,0x2
    13ec:	96b2                	add	a3,a3,a2
    13ee:	a19c                	sb	a5,0(a1)
    13f0:	078a                	slli	a5,a5,0x2
    13f2:	4294                	lw	a3,0(a3)
    13f4:	97b2                	add	a5,a5,a2
    13f6:	4398                	lw	a4,0(a5)
    13f8:	c014                	sw	a3,0(s0)
    13fa:	86e1ac23          	sw	a4,-1928(gp) # 200001c8 <clp>
    13fe:	a8e9                	j	14d8 <iexe+0x214>
    1400:	00278693          	addi	a3,a5,2
    1404:	c014                	sw	a3,0(s0)
    1406:	338c                	lbu	a1,1(a5)
    1408:	02500613          	li	a2,37
    140c:	87c18493          	addi	s1,gp,-1924 # 200001cc <err>
    1410:	00c58563          	beq	a1,a2,141a <iexe+0x156>
    1414:	47b1                	li	a5,12
    1416:	a09c                	sb	a5,0(s1)
    1418:	bfa5                	j	1390 <iexe+0xcc>
    141a:	23bc                	lbu	a5,2(a5)
    141c:	c03e                	sw	a5,0(sp)
    141e:	33fd                	jal	120c <ivar>
    1420:	209c                	lbu	a5,0(s1)
    1422:	f7bd                	bnez	a5,1390 <iexe+0xcc>
    1424:	401c                	lw	a5,0(s0)
    1426:	4611                	li	a2,4
    1428:	238c                	lbu	a1,0(a5)
    142a:	02c59363          	bne	a1,a2,1450 <iexe+0x18c>
    142e:	0785                	addi	a5,a5,1
    1430:	c01c                	sw	a5,0(s0)
    1432:	9a1ff0ef          	jal	ra,dd2 <iexp>
    1436:	401c                	lw	a5,0(s0)
    1438:	85aa                	mv	a1,a0
    143a:	4615                	li	a2,5
    143c:	2388                	lbu	a0,0(a5)
    143e:	00c50b63          	beq	a0,a2,1454 <iexe+0x190>
    1442:	4505                	li	a0,1
    1444:	67a1                	lui	a5,0x8
    1446:	17fd                	addi	a5,a5,-1
    1448:	8f89                	sub	a5,a5,a0
    144a:	02b7c263          	blt	a5,a1,146e <iexe+0x1aa>
    144e:	a01d                	j	1474 <iexe+0x1b0>
    1450:	47b5                	li	a5,13
    1452:	b7d1                	j	1416 <iexe+0x152>
    1454:	0785                	addi	a5,a5,1
    1456:	c22e                	sw	a1,4(sp)
    1458:	c01c                	sw	a5,0(s0)
    145a:	979ff0ef          	jal	ra,dd2 <iexp>
    145e:	4592                	lw	a1,4(sp)
    1460:	00055963          	bgez	a0,1472 <iexe+0x1ae>
    1464:	77e1                	lui	a5,0xffff8
    1466:	0785                	addi	a5,a5,1
    1468:	8f89                	sub	a5,a5,a0
    146a:	00f5d563          	bge	a1,a5,1474 <iexe+0x1b0>
    146e:	4789                	li	a5,2
    1470:	b75d                	j	1416 <iexe+0x152>
    1472:	f969                	bnez	a0,1444 <iexe+0x180>
    1474:	b7818613          	addi	a2,gp,-1160 # 200004c8 <lstki>
    1478:	221c                	lbu	a5,0(a2)
    147a:	4329                	li	t1,10
    147c:	00f37463          	bgeu	t1,a5,1484 <iexe+0x1c0>
    1480:	47a1                	li	a5,8
    1482:	bf51                	j	1416 <iexe+0x152>
    1484:	8781a283          	lw	t0,-1928(gp) # 200001c8 <clp>
    1488:	b3c18693          	addi	a3,gp,-1220 # 2000048c <lstk>
    148c:	00279313          	slli	t1,a5,0x2
    1490:	9336                	add	t1,t1,a3
    1492:	00532023          	sw	t0,0(t1)
    1496:	00178313          	addi	t1,a5,1 # ffff8001 <__global_pointer$+0xdfff76b1>
    149a:	4018                	lw	a4,0(s0)
    149c:	0ff37313          	andi	t1,t1,255
    14a0:	030a                	slli	t1,t1,0x2
    14a2:	9336                	add	t1,t1,a3
    14a4:	00e32023          	sw	a4,0(t1)
    14a8:	00278713          	addi	a4,a5,2
    14ac:	0ff77713          	andi	a4,a4,255
    14b0:	070a                	slli	a4,a4,0x2
    14b2:	9736                	add	a4,a4,a3
    14b4:	c30c                	sw	a1,0(a4)
    14b6:	00378713          	addi	a4,a5,3
    14ba:	0ff77713          	andi	a4,a4,255
    14be:	070a                	slli	a4,a4,0x2
    14c0:	9736                	add	a4,a4,a3
    14c2:	c308                	sw	a0,0(a4)
    14c4:	00578713          	addi	a4,a5,5
    14c8:	0791                	addi	a5,a5,4
    14ca:	a218                	sb	a4,0(a2)
    14cc:	0ff7f793          	andi	a5,a5,255
    14d0:	4702                	lw	a4,0(sp)
    14d2:	078a                	slli	a5,a5,0x2
    14d4:	97b6                	add	a5,a5,a3
    14d6:	c398                	sw	a4,0(a5)
    14d8:	87c1c783          	lbu	a5,-1924(gp) # 200001cc <err>
    14dc:	de0787e3          	beqz	a5,12ca <iexe+0x6>
    14e0:	bd45                	j	1390 <iexe+0xcc>
    14e2:	00178693          	addi	a3,a5,1
    14e6:	c014                	sw	a3,0(s0)
    14e8:	b781c683          	lbu	a3,-1160(gp) # 200004c8 <lstki>
    14ec:	4611                	li	a2,4
    14ee:	87c18313          	addi	t1,gp,-1924 # 200001cc <err>
    14f2:	b7818513          	addi	a0,gp,-1160 # 200004c8 <lstki>
    14f6:	00d66663          	bltu	a2,a3,1502 <iexe+0x23e>
    14fa:	47a5                	li	a5,9
    14fc:	00f30023          	sb	a5,0(t1)
    1500:	bd41                	j	1390 <iexe+0xcc>
    1502:	fff68293          	addi	t0,a3,-1
    1506:	b3c18593          	addi	a1,gp,-1220 # 2000048c <lstk>
    150a:	028a                	slli	t0,t0,0x2
    150c:	9596                	add	a1,a1,t0
    150e:	0005a283          	lw	t0,0(a1)
    1512:	00278593          	addi	a1,a5,2
    1516:	c00c                	sw	a1,0(s0)
    1518:	0017c383          	lbu	t2,1(a5)
    151c:	02500593          	li	a1,37
    1520:	b3c18613          	addi	a2,gp,-1220 # 2000048c <lstk>
    1524:	00b38463          	beq	t2,a1,152c <iexe+0x268>
    1528:	47a9                	li	a5,10
    152a:	bfc9                	j	14fc <iexe+0x238>
    152c:	00378593          	addi	a1,a5,3
    1530:	c00c                	sw	a1,0(s0)
    1532:	23ac                	lbu	a1,2(a5)
    1534:	02c2                	slli	t0,t0,0x10
    1536:	4102d293          	srai	t0,t0,0x10
    153a:	00558463          	beq	a1,t0,1542 <iexe+0x27e>
    153e:	47ad                	li	a5,11
    1540:	bf75                	j	14fc <iexe+0x238>
    1542:	00159293          	slli	t0,a1,0x1
    1546:	ffe68793          	addi	a5,a3,-2
    154a:	078a                	slli	a5,a5,0x2
    154c:	b7c18593          	addi	a1,gp,-1156 # 200004cc <var>
    1550:	9596                	add	a1,a1,t0
    1552:	97b2                	add	a5,a5,a2
    1554:	0005d283          	lhu	t0,0(a1)
    1558:	439c                	lw	a5,0(a5)
    155a:	01079313          	slli	t1,a5,0x10
    155e:	9796                	add	a5,a5,t0
    1560:	07c2                	slli	a5,a5,0x10
    1562:	87c1                	srai	a5,a5,0x10
    1564:	a19e                	sh	a5,0(a1)
    1566:	ffd68593          	addi	a1,a3,-3
    156a:	058a                	slli	a1,a1,0x2
    156c:	95b2                	add	a1,a1,a2
    156e:	41035313          	srai	t1,t1,0x10
    1572:	00059283          	lh	t0,0(a1)
    1576:	ffb68593          	addi	a1,a3,-5
    157a:	00035d63          	bgez	t1,1594 <iexe+0x2d0>
    157e:	0057cf63          	blt	a5,t0,159c <iexe+0x2d8>
    1582:	16f1                	addi	a3,a3,-4
    1584:	068a                	slli	a3,a3,0x2
    1586:	96b2                	add	a3,a3,a2
    1588:	429c                	lw	a5,0(a3)
    158a:	058a                	slli	a1,a1,0x2
    158c:	962e                	add	a2,a2,a1
    158e:	c01c                	sw	a5,0(s0)
    1590:	4218                	lw	a4,0(a2)
    1592:	b5a5                	j	13fa <iexe+0x136>
    1594:	fe0307e3          	beqz	t1,1582 <iexe+0x2be>
    1598:	fef2d5e3          	bge	t0,a5,1582 <iexe+0x2be>
    159c:	a10c                	sb	a1,0(a0)
    159e:	bf2d                	j	14d8 <iexe+0x214>
    15a0:	0785                	addi	a5,a5,1
    15a2:	c01c                	sw	a5,0(s0)
    15a4:	82fff0ef          	jal	ra,dd2 <iexp>
    15a8:	87c18793          	addi	a5,gp,-1924 # 200001cc <err>
    15ac:	2394                	lbu	a3,0(a5)
    15ae:	c681                	beqz	a3,15b6 <iexe+0x2f2>
    15b0:	473d                	li	a4,15
    15b2:	a398                	sb	a4,0(a5)
    15b4:	bbf1                	j	1390 <iexe+0xcc>
    15b6:	d0051ae3          	bnez	a0,12ca <iexe+0x6>
    15ba:	02700693          	li	a3,39
    15be:	401c                	lw	a5,0(s0)
    15c0:	2390                	lbu	a2,0(a5)
    15c2:	f0d60be3          	beq	a2,a3,14d8 <iexe+0x214>
    15c6:	0785                	addi	a5,a5,1
    15c8:	c01c                	sw	a5,0(s0)
    15ca:	bfd5                	j	15be <iexe+0x2fa>
    15cc:	953e                	add	a0,a0,a5
    15ce:	c308                	sw	a0,0(a4)
    15d0:	b399                	j	1316 <iexe+0x52>
    15d2:	0785                	addi	a5,a5,1
    15d4:	c01c                	sw	a5,0(s0)
    15d6:	391d                	jal	120c <ivar>
    15d8:	b701                	j	14d8 <iexe+0x214>
    15da:	0785                	addi	a5,a5,1
    15dc:	c01c                	sw	a5,0(s0)
    15de:	31ad                	jal	1248 <iarray>
    15e0:	bde5                	j	14d8 <iexe+0x214>
    15e2:	0785                	addi	a5,a5,1
    15e4:	c01c                	sw	a5,0(s0)
    15e6:	316d                	jal	1290 <ilet>
    15e8:	bdc5                	j	14d8 <iexe+0x214>
    15ea:	0785                	addi	a5,a5,1
    15ec:	c01c                	sw	a5,0(s0)
    15ee:	a4dff0ef          	jal	ra,103a <iprint>
    15f2:	b5dd                	j	14d8 <iexe+0x214>
    15f4:	0785                	addi	a5,a5,1
    15f6:	c01c                	sw	a5,0(s0)
    15f8:	afdff0ef          	jal	ra,10f4 <iinput>
    15fc:	bdf1                	j	14d8 <iexe+0x214>
    15fe:	474d                	li	a4,19
    1600:	b3a9                	j	134a <iexe+0x86>
    1602:	0785                	addi	a5,a5,1
    1604:	c01c                	sw	a5,0(s0)
    1606:	bdc9                	j	14d8 <iexe+0x214>
    1608:	4751                	li	a4,20
    160a:	b381                	j	134a <iexe+0x86>

0000160c <irun>:
    160c:	a95fe2ef          	jal	t0,a0 <__riscv_save_0>
    1610:	88018c23          	sb	zero,-1896(gp) # 200001e8 <gstki>
    1614:	b6018c23          	sb	zero,-1160(gp) # 200004c8 <lstki>
    1618:	93c18793          	addi	a5,gp,-1732 # 2000028c <listbuf>
    161c:	86f1ac23          	sw	a5,-1928(gp) # 200001c8 <clp>
    1620:	87818413          	addi	s0,gp,-1928 # 200001c8 <clp>
    1624:	401c                	lw	a5,0(s0)
    1626:	2398                	lbu	a4,0(a5)
    1628:	e319                	bnez	a4,162e <irun+0x22>
    162a:	a81fe06f          	j	aa <__riscv_restore_0>
    162e:	078d                	addi	a5,a5,3
    1630:	86f1aa23          	sw	a5,-1932(gp) # 200001c4 <cip>
    1634:	3941                	jal	12c4 <iexe>
    1636:	87c1c783          	lbu	a5,-1924(gp) # 200001cc <err>
    163a:	fbe5                	bnez	a5,162a <irun+0x1e>
    163c:	c008                	sw	a0,0(s0)
    163e:	b7dd                	j	1624 <irun+0x18>

00001640 <ilist>:
    1640:	a61fe2ef          	jal	t0,a0 <__riscv_save_0>
    1644:	8741a503          	lw	a0,-1932(gp) # 200001c4 <cip>
    1648:	02400793          	li	a5,36
    164c:	1161                	addi	sp,sp,-8
    164e:	2114                	lbu	a3,0(a0)
    1650:	4701                	li	a4,0
    1652:	00f69563          	bne	a3,a5,165c <ilist+0x1c>
    1656:	d42ff0ef          	jal	ra,b98 <getlineno>
    165a:	872a                	mv	a4,a0
    165c:	93c18793          	addi	a5,gp,-1732 # 2000028c <listbuf>
    1660:	86f1ac23          	sw	a5,-1928(gp) # 200001c8 <clp>
    1664:	87818413          	addi	s0,gp,-1928 # 200001c8 <clp>
    1668:	4004                	lw	s1,0(s0)
    166a:	c23a                	sw	a4,4(sp)
    166c:	209c                	lbu	a5,0(s1)
    166e:	c03e                	sw	a5,0(sp)
    1670:	cb81                	beqz	a5,1680 <ilist+0x40>
    1672:	8526                	mv	a0,s1
    1674:	d24ff0ef          	jal	ra,b98 <getlineno>
    1678:	4712                	lw	a4,4(sp)
    167a:	4782                	lw	a5,0(sp)
    167c:	00e54363          	blt	a0,a4,1682 <ilist+0x42>
    1680:	a805                	j	16b0 <ilist+0x70>
    1682:	94be                	add	s1,s1,a5
    1684:	c004                	sw	s1,0(s0)
    1686:	b7cd                	j	1668 <ilist+0x28>
    1688:	d10ff0ef          	jal	ra,b98 <getlineno>
    168c:	4581                	li	a1,0
    168e:	860ff0ef          	jal	ra,6ee <putnum>
    1692:	02000513          	li	a0,32
    1696:	292d                	jal	1ad0 <video_putch>
    1698:	4008                	lw	a0,0(s0)
    169a:	050d                	addi	a0,a0,3
    169c:	deaff0ef          	jal	ra,c86 <putlist>
    16a0:	87c1c783          	lbu	a5,-1924(gp) # 200001cc <err>
    16a4:	eb89                	bnez	a5,16b6 <ilist+0x76>
    16a6:	2959                	jal	1b3c <video_newline>
    16a8:	401c                	lw	a5,0(s0)
    16aa:	2398                	lbu	a4,0(a5)
    16ac:	97ba                	add	a5,a5,a4
    16ae:	c01c                	sw	a5,0(s0)
    16b0:	4008                	lw	a0,0(s0)
    16b2:	211c                	lbu	a5,0(a0)
    16b4:	fbf1                	bnez	a5,1688 <ilist+0x48>
    16b6:	0121                	addi	sp,sp,8
    16b8:	9f3fe06f          	j	aa <__riscv_restore_0>

000016bc <inew>:
    16bc:	b7c18793          	addi	a5,gp,-1156 # 200004cc <var>
    16c0:	03478713          	addi	a4,a5,52
    16c4:	00079023          	sh	zero,0(a5)
    16c8:	0789                	addi	a5,a5,2
    16ca:	fee79de3          	bne	a5,a4,16c4 <inew+0x8>
    16ce:	83418793          	addi	a5,gp,-1996 # 20000184 <arr>
    16d2:	04078713          	addi	a4,a5,64
    16d6:	00079023          	sh	zero,0(a5)
    16da:	0789                	addi	a5,a5,2
    16dc:	fef71de3          	bne	a4,a5,16d6 <inew+0x1a>
    16e0:	88018c23          	sb	zero,-1896(gp) # 200001e8 <gstki>
    16e4:	b6018c23          	sb	zero,-1160(gp) # 200004c8 <lstki>
    16e8:	93c18793          	addi	a5,gp,-1732 # 2000028c <listbuf>
    16ec:	00078023          	sb	zero,0(a5)
    16f0:	86f1ac23          	sw	a5,-1928(gp) # 200001c8 <clp>
    16f4:	8082                	ret

000016f6 <isave>:
    16f6:	9abfe2ef          	jal	t0,a0 <__riscv_save_0>
    16fa:	1151                	addi	sp,sp,-12
    16fc:	08004437          	lui	s0,0x8004
    1700:	153000ef          	jal	ra,2052 <FLASH_Unlock_Fast>
    1704:	c0040413          	addi	s0,s0,-1024 # 8003c00 <_data_lma+0x8000660>
    1708:	080044b7          	lui	s1,0x8004
    170c:	8522                	mv	a0,s0
    170e:	1cb000ef          	jal	ra,20d8 <FLASH_ErasePage_Fast>
    1712:	080047b7          	lui	a5,0x8004
    1716:	04040413          	addi	s0,s0,64
    171a:	e0078793          	addi	a5,a5,-512 # 8003e00 <_data_lma+0x8000860>
    171e:	fef417e3          	bne	s0,a5,170c <isave+0x16>
    1722:	89c18793          	addi	a5,gp,-1892 # 200001ec <ibuf>
    1726:	c0048413          	addi	s0,s1,-1024 # 8003c00 <_data_lma+0x8000660>
    172a:	080044b7          	lui	s1,0x8004
    172e:	c03e                	sw	a5,0(sp)
    1730:	e0048493          	addi	s1,s1,-512 # 8003e00 <_data_lma+0x8000860>
    1734:	147000ef          	jal	ra,207a <FLASH_BufReset>
    1738:	4682                	lw	a3,0(sp)
    173a:	4601                	li	a2,0
    173c:	32b8                	lbu	a4,3(a3)
    173e:	22ac                	lbu	a1,2(a3)
    1740:	00860533          	add	a0,a2,s0
    1744:	0762                	slli	a4,a4,0x18
    1746:	05c2                	slli	a1,a1,0x10
    1748:	972e                	add	a4,a4,a1
    174a:	328c                	lbu	a1,1(a3)
    174c:	c436                	sw	a3,8(sp)
    174e:	c232                	sw	a2,4(sp)
    1750:	05a2                	slli	a1,a1,0x8
    1752:	972e                	add	a4,a4,a1
    1754:	228c                	lbu	a1,0(a3)
    1756:	95ba                	add	a1,a1,a4
    1758:	14b000ef          	jal	ra,20a2 <FLASH_BufLoad>
    175c:	4612                	lw	a2,4(sp)
    175e:	46a2                	lw	a3,8(sp)
    1760:	04000713          	li	a4,64
    1764:	0611                	addi	a2,a2,4
    1766:	0691                	addi	a3,a3,4
    1768:	fce61ae3          	bne	a2,a4,173c <isave+0x46>
    176c:	8522                	mv	a0,s0
    176e:	1a1000ef          	jal	ra,210e <FLASH_ProgramPage_Fast>
    1772:	4782                	lw	a5,0(sp)
    1774:	04040413          	addi	s0,s0,64
    1778:	04078793          	addi	a5,a5,64
    177c:	c03e                	sw	a5,0(sp)
    177e:	fa941be3          	bne	s0,s1,1734 <isave+0x3e>
    1782:	0ef000ef          	jal	ra,2070 <FLASH_Lock_Fast>
    1786:	0131                	addi	sp,sp,12
    1788:	923fe06f          	j	aa <__riscv_restore_0>

0000178c <iload>:
    178c:	4781                	li	a5,0
    178e:	08004537          	lui	a0,0x8004
    1792:	89c18713          	addi	a4,gp,-1892 # 200001ec <ibuf>
    1796:	20000693          	li	a3,512
    179a:	00f50633          	add	a2,a0,a5
    179e:	c0064583          	lbu	a1,-1024(a2)
    17a2:	00f70633          	add	a2,a4,a5
    17a6:	0785                	addi	a5,a5,1
    17a8:	a20c                	sb	a1,0(a2)
    17aa:	fed798e3          	bne	a5,a3,179a <iload+0xe>
    17ae:	8082                	ret

000017b0 <icom>:
    17b0:	8f1fe2ef          	jal	t0,a0 <__riscv_save_0>
    17b4:	89c18793          	addi	a5,gp,-1892 # 200001ec <ibuf>
    17b8:	86f1aa23          	sw	a5,-1932(gp) # 200001c4 <cip>
    17bc:	239c                	lbu	a5,0(a5)
    17be:	4611                	li	a2,4
    17c0:	1785                	addi	a5,a5,-31
    17c2:	0ff7f793          	andi	a5,a5,255
    17c6:	06f66663          	bltu	a2,a5,1832 <icom+0x82>
    17ca:	660d                	lui	a2,0x3
    17cc:	aa060613          	addi	a2,a2,-1376 # 2aa0 <PS2Keymap_Japanese+0x2a8>
    17d0:	078a                	slli	a5,a5,0x2
    17d2:	97b2                	add	a5,a5,a2
    17d4:	4390                	lw	a2,0(a5)
    17d6:	87418693          	addi	a3,gp,-1932 # 200001c4 <cip>
    17da:	89d18793          	addi	a5,gp,-1891 # 200001ed <ibuf+0x1>
    17de:	89c18713          	addi	a4,gp,-1892 # 200001ec <ibuf>
    17e2:	c29c                	sw	a5,0(a3)
    17e4:	8602                	jr	a2
    17e6:	3318                	lbu	a4,1(a4)
    17e8:	02700793          	li	a5,39
    17ec:	00f71563          	bne	a4,a5,17f6 <icom+0x46>
    17f0:	35f1                	jal	16bc <inew>
    17f2:	8b9fe06f          	j	aa <__riscv_restore_0>
    17f6:	4751                	li	a4,20
    17f8:	86e18e23          	sb	a4,-1924(gp) # 200001cc <err>
    17fc:	bfdd                	j	17f2 <icom+0x42>
    17fe:	3314                	lbu	a3,1(a4)
    1800:	02700793          	li	a5,39
    1804:	00f68563          	beq	a3,a5,180e <icom+0x5e>
    1808:	2358                	lbu	a4,4(a4)
    180a:	fef716e3          	bne	a4,a5,17f6 <icom+0x46>
    180e:	3d0d                	jal	1640 <ilist>
    1810:	b7cd                	j	17f2 <icom+0x42>
    1812:	3bed                	jal	160c <irun>
    1814:	bff9                	j	17f2 <icom+0x42>
    1816:	3318                	lbu	a4,1(a4)
    1818:	02700793          	li	a5,39
    181c:	fcf71de3          	bne	a4,a5,17f6 <icom+0x46>
    1820:	3dd9                	jal	16f6 <isave>
    1822:	bfc1                	j	17f2 <icom+0x42>
    1824:	3318                	lbu	a4,1(a4)
    1826:	02700793          	li	a5,39
    182a:	fcf716e3          	bne	a4,a5,17f6 <icom+0x46>
    182e:	3fb9                	jal	178c <iload>
    1830:	b7c9                	j	17f2 <icom+0x42>
    1832:	a93ff0ef          	jal	ra,12c4 <iexe>
    1836:	bf75                	j	17f2 <icom+0x42>

00001838 <error>:
    1838:	869fe2ef          	jal	t0,a0 <__riscv_save_0>
    183c:	87c1c783          	lbu	a5,-1924(gp) # 200001cc <err>
    1840:	87c18413          	addi	s0,gp,-1924 # 200001cc <err>
    1844:	c7a1                	beqz	a5,188c <error+0x54>
    1846:	8741a703          	lw	a4,-1932(gp) # 200001c4 <cip>
    184a:	93c18793          	addi	a5,gp,-1732 # 2000028c <listbuf>
    184e:	06f76063          	bltu	a4,a5,18ae <error+0x76>
    1852:	20078793          	addi	a5,a5,512
    1856:	04f77c63          	bgeu	a4,a5,18ae <error+0x76>
    185a:	87818493          	addi	s1,gp,-1928 # 200001c8 <clp>
    185e:	409c                	lw	a5,0(s1)
    1860:	239c                	lbu	a5,0(a5)
    1862:	c7b1                	beqz	a5,18ae <error+0x76>
    1864:	2ce1                	jal	1b3c <video_newline>
    1866:	00003537          	lui	a0,0x3
    186a:	ae450513          	addi	a0,a0,-1308 # 2ae4 <PS2Keymap_Japanese+0x2ec>
    186e:	da9fe0ef          	jal	ra,616 <c_puts>
    1872:	4088                	lw	a0,0(s1)
    1874:	b24ff0ef          	jal	ra,b98 <getlineno>
    1878:	4581                	li	a1,0
    187a:	e75fe0ef          	jal	ra,6ee <putnum>
    187e:	02000513          	li	a0,32
    1882:	24b9                	jal	1ad0 <video_putch>
    1884:	4088                	lw	a0,0(s1)
    1886:	050d                	addi	a0,a0,3
    1888:	bfeff0ef          	jal	ra,c86 <putlist>
    188c:	2c45                	jal	1b3c <video_newline>
    188e:	201c                	lbu	a5,0(s0)
    1890:	00279713          	slli	a4,a5,0x2
    1894:	200007b7          	lui	a5,0x20000
    1898:	00078793          	mv	a5,a5
    189c:	97ba                	add	a5,a5,a4
    189e:	4388                	lw	a0,0(a5)
    18a0:	d77fe0ef          	jal	ra,616 <c_puts>
    18a4:	2c61                	jal	1b3c <video_newline>
    18a6:	00040023          	sb	zero,0(s0)
    18aa:	801fe06f          	j	aa <__riscv_restore_0>
    18ae:	2479                	jal	1b3c <video_newline>
    18b0:	00003537          	lui	a0,0x3
    18b4:	aec50513          	addi	a0,a0,-1300 # 2aec <PS2Keymap_Japanese+0x2f4>
    18b8:	d5ffe0ef          	jal	ra,616 <c_puts>
    18bc:	8ec18513          	addi	a0,gp,-1812 # 2000023c <lbuf>
    18c0:	d57fe0ef          	jal	ra,616 <c_puts>
    18c4:	b7e1                	j	188c <error+0x54>

000018c6 <basic>:
    18c6:	fdafe2ef          	jal	t0,a0 <__riscv_save_0>
    18ca:	3bcd                	jal	16bc <inew>
    18cc:	00003537          	lui	a0,0x3
    18d0:	ab450513          	addi	a0,a0,-1356 # 2ab4 <PS2Keymap_Japanese+0x2bc>
    18d4:	d43fe0ef          	jal	ra,616 <c_puts>
    18d8:	2495                	jal	1b3c <video_newline>
    18da:	00003537          	lui	a0,0x3
    18de:	acc50513          	addi	a0,a0,-1332 # 2acc <PS2Keymap_Japanese+0x2d4>
    18e2:	d35fe0ef          	jal	ra,616 <c_puts>
    18e6:	00003537          	lui	a0,0x3
    18ea:	ad850513          	addi	a0,a0,-1320 # 2ad8 <PS2Keymap_Japanese+0x2e0>
    18ee:	d29fe0ef          	jal	ra,616 <c_puts>
    18f2:	24a9                	jal	1b3c <video_newline>
    18f4:	3791                	jal	1838 <error>
    18f6:	03e00513          	li	a0,62
    18fa:	2ad9                	jal	1ad0 <video_putch>
    18fc:	d35fe0ef          	jal	ra,630 <c_gets>
    1900:	fa5fe0ef          	jal	ra,8a4 <toktoi>
    1904:	87c18493          	addi	s1,gp,-1924 # 200001cc <err>
    1908:	209c                	lbu	a5,0(s1)
    190a:	c399                	beqz	a5,1910 <basic+0x4a>
    190c:	3735                	jal	1838 <error>
    190e:	b7e5                	j	18f6 <basic+0x30>
    1910:	89c18793          	addi	a5,gp,-1892 # 200001ec <ibuf>
    1914:	2394                	lbu	a3,0(a5)
    1916:	02400713          	li	a4,36
    191a:	00e69863          	bne	a3,a4,192a <basic+0x64>
    191e:	a388                	sb	a0,0(a5)
    1920:	ab8ff0ef          	jal	ra,bd8 <inslist>
    1924:	209c                	lbu	a5,0(s1)
    1926:	dbe1                	beqz	a5,18f6 <basic+0x30>
    1928:	b7d5                	j	190c <basic+0x46>
    192a:	3559                	jal	17b0 <icom>
    192c:	b7c5                	j	190c <basic+0x46>

0000192e <NMI_Handler>:
    192e:	30200073          	mret

00001932 <HardFault_Handler>:
    1932:	a001                	j	1932 <HardFault_Handler>

00001934 <video_scroll>:
    1934:	f6cfe2ef          	jal	t0,a0 <__riscv_save_0>
    1938:	bbc18413          	addi	s0,gp,-1092 # 2000050c <vram>
    193c:	4008                	lw	a0,0(s0)
    193e:	0b000613          	li	a2,176
    1942:	01050593          	addi	a1,a0,16
    1946:	457000ef          	jal	ra,259c <memmove>
    194a:	4008                	lw	a0,0(s0)
    194c:	4641                	li	a2,16
    194e:	4581                	li	a1,0
    1950:	0b050513          	addi	a0,a0,176
    1954:	ff6fe0ef          	jal	ra,14a <memset>
    1958:	f52fe06f          	j	aa <__riscv_restore_0>

0000195c <video_init>:
    195c:	f44fe2ef          	jal	t0,a0 <__riscv_save_0>
    1960:	6509                	lui	a0,0x2
    1962:	fbc10113          	addi	sp,sp,-68
    1966:	4585                	li	a1,1
    1968:	81050513          	addi	a0,a0,-2032 # 1810 <icom+0x60>
    196c:	d002                	sw	zero,32(sp)
    196e:	d202                	sw	zero,36(sp)
    1970:	d402                	sw	zero,40(sp)
    1972:	d602                	sw	zero,44(sp)
    1974:	c402                	sw	zero,8(sp)
    1976:	c602                	sw	zero,12(sp)
    1978:	00011823          	sh	zero,16(sp)
    197c:	ca02                	sw	zero,20(sp)
    197e:	cc02                	sw	zero,24(sp)
    1980:	ce02                	sw	zero,28(sp)
    1982:	d802                	sw	zero,48(sp)
    1984:	da02                	sw	zero,52(sp)
    1986:	dc02                	sw	zero,56(sp)
    1988:	de02                	sw	zero,60(sp)
    198a:	04011023          	sh	zero,64(sp)
    198e:	c002                	sw	zero,0(sp)
    1990:	c202                	sw	zero,4(sp)
    1992:	17d000ef          	jal	ra,230e <RCC_APB2PeriphClockCmd>
    1996:	47c1                	li	a5,16
    1998:	82fc                	sh	a5,20(sp)
    199a:	440d                	li	s0,3
    199c:	47e1                	li	a5,24
    199e:	084c                	addi	a1,sp,20
    19a0:	40011537          	lui	a0,0x40011
    19a4:	ce3e                	sw	a5,28(sp)
    19a6:	cc22                	sw	s0,24(sp)
    19a8:	79a000ef          	jal	ra,2142 <GPIO_Init>
    19ac:	47e1                	li	a5,24
    19ae:	04000713          	li	a4,64
    19b2:	084c                	addi	a1,sp,20
    19b4:	40011537          	lui	a0,0x40011
    19b8:	ce3e                	sw	a5,28(sp)
    19ba:	82f8                	sh	a4,20(sp)
    19bc:	cc22                	sw	s0,24(sp)
    19be:	784000ef          	jal	ra,2142 <GPIO_Init>
    19c2:	40013437          	lui	s0,0x40013
    19c6:	6705                	lui	a4,0x1
    19c8:	bea70713          	addi	a4,a4,-1046 # bea <inslist+0x12>
    19cc:	002c                	addi	a1,sp,8
    19ce:	c0040513          	addi	a0,s0,-1024 # 40012c00 <__global_pointer$+0x200122b0>
    19d2:	c63a                	sw	a4,12(sp)
    19d4:	c402                	sw	zero,8(sp)
    19d6:	64c1                	lui	s1,0x10
    19d8:	1b3000ef          	jal	ra,238a <TIM_TimeBaseInit>
    19dc:	07048493          	addi	s1,s1,112 # 10070 <_data_lma+0xcad0>
    19e0:	0e100713          	li	a4,225
    19e4:	100c                	addi	a1,sp,32
    19e6:	c0040513          	addi	a0,s0,-1024
    19ea:	d026                	sw	s1,32(sp)
    19ec:	02e11323          	sh	a4,38(sp)
    19f0:	02011423          	sh	zero,40(sp)
    19f4:	279000ef          	jal	ra,246c <TIM_OC4Init>
    19f8:	15e00713          	li	a4,350
    19fc:	100c                	addi	a1,sp,32
    19fe:	c0040513          	addi	a0,s0,-1024
    1a02:	02e11323          	sh	a4,38(sp)
    1a06:	d026                	sw	s1,32(sp)
    1a08:	02011423          	sh	zero,40(sp)
    1a0c:	1cd000ef          	jal	ra,23d8 <TIM_OC3Init>
    1a10:	c0040513          	addi	a0,s0,-1024
    1a14:	4585                	li	a1,1
    1a16:	2dd000ef          	jal	ra,24f2 <TIM_CtrlPWMOutputs>
    1a1a:	c0040513          	addi	a0,s0,-1024
    1a1e:	4581                	li	a1,0
    1a20:	315000ef          	jal	ra,2534 <TIM_OC3PreloadConfig>
    1a24:	c0040513          	addi	a0,s0,-1024
    1a28:	4581                	li	a1,0
    1a2a:	319000ef          	jal	ra,2542 <TIM_OC4PreloadConfig>
    1a2e:	c0040513          	addi	a0,s0,-1024
    1a32:	4585                	li	a1,1
    1a34:	2e7000ef          	jal	ra,251a <TIM_ARRPreloadConfig>
    1a38:	c0040513          	addi	a0,s0,-1024
    1a3c:	4585                	li	a1,1
    1a3e:	29d000ef          	jal	ra,24da <TIM_Cmd>
    1a42:	0104c737          	lui	a4,0x104c
    1a46:	d83a                	sw	a4,48(sp)
    1a48:	47e1                	li	a5,24
    1a4a:	00020737          	lui	a4,0x20
    1a4e:	da3a                	sw	a4,52(sp)
    1a50:	de3e                	sw	a5,60(sp)
    1a52:	02000737          	lui	a4,0x2000
    1a56:	479d                	li	a5,7
    1a58:	180c                	addi	a1,sp,48
    1a5a:	40013537          	lui	a0,0x40013
    1a5e:	dc3a                	sw	a4,56(sp)
    1a60:	04f11023          	sh	a5,64(sp)
    1a64:	0c9000ef          	jal	ra,232c <SPI_Init>
    1a68:	4605                	li	a2,1
    1a6a:	4589                	li	a1,2
    1a6c:	40013537          	lui	a0,0x40013
    1a70:	109000ef          	jal	ra,2378 <SPI_I2S_DMACmd>
    1a74:	4585                	li	a1,1
    1a76:	40013537          	lui	a0,0x40013
    1a7a:	0e5000ef          	jal	ra,235e <SPI_Cmd>
    1a7e:	22500793          	li	a5,549
    1a82:	807c                	sh	a5,0(sp)
    1a84:	850a                	mv	a0,sp
    1a86:	4785                	li	a5,1
    1a88:	c23e                	sw	a5,4(sp)
    1a8a:	00010123          	sb	zero,2(sp)
    1a8e:	7bc000ef          	jal	ra,224a <NVIC_Init>
    1a92:	4605                	li	a2,1
    1a94:	45a1                	li	a1,8
    1a96:	c0040513          	addi	a0,s0,-1024
    1a9a:	26f000ef          	jal	ra,2508 <TIM_ITConfig>
    1a9e:	0c000513          	li	a0,192
    1aa2:	2ed000ef          	jal	ra,258e <malloc>
    1aa6:	baa1ae23          	sw	a0,-1092(gp) # 2000050c <vram>
    1aaa:	4545                	li	a0,17
    1aac:	2e3000ef          	jal	ra,258e <malloc>
    1ab0:	bb418413          	addi	s0,gp,-1100 # 20000504 <scandata>
    1ab4:	84aa                	mv	s1,a0
    1ab6:	c008                	sw	a0,0(s0)
    1ab8:	4545                	li	a0,17
    1aba:	2d5000ef          	jal	ra,258e <malloc>
    1abe:	c048                	sw	a0,4(s0)
    1ac0:	00048823          	sb	zero,16(s1)
    1ac4:	00050823          	sb	zero,16(a0) # 40013010 <__global_pointer$+0x200126c0>
    1ac8:	04410113          	addi	sp,sp,68
    1acc:	ddefe06f          	j	aa <__riscv_restore_0>

00001ad0 <video_putch>:
    1ad0:	bb018793          	addi	a5,gp,-1104 # 20000500 <cursor_x>
    1ad4:	46a1                	li	a3,8
    1ad6:	2398                	lbu	a4,0(a5)
    1ad8:	04d50563          	beq	a0,a3,1b22 <video_putch+0x52>
    1adc:	dc4fe2ef          	jal	t0,a0 <__riscv_save_0>
    1ae0:	bb118413          	addi	s0,gp,-1103 # 20000501 <cursor_y>
    1ae4:	2010                	lbu	a2,0(s0)
    1ae6:	bbc1a683          	lw	a3,-1092(gp) # 2000050c <vram>
    1aea:	0612                	slli	a2,a2,0x4
    1aec:	96b2                	add	a3,a3,a2
    1aee:	9736                	add	a4,a4,a3
    1af0:	a308                	sb	a0,0(a4)
    1af2:	2398                	lbu	a4,0(a5)
    1af4:	46bd                	li	a3,15
    1af6:	0705                	addi	a4,a4,1
    1af8:	0ff77713          	andi	a4,a4,255
    1afc:	00e6e563          	bltu	a3,a4,1b06 <video_putch+0x36>
    1b00:	a398                	sb	a4,0(a5)
    1b02:	da8fe06f          	j	aa <__riscv_restore_0>
    1b06:	00078023          	sb	zero,0(a5) # 20000000 <_data_vma>
    1b0a:	201c                	lbu	a5,0(s0)
    1b0c:	44ad                	li	s1,11
    1b0e:	0785                	addi	a5,a5,1
    1b10:	0ff7f793          	andi	a5,a5,255
    1b14:	a01c                	sb	a5,0(s0)
    1b16:	fef4f6e3          	bgeu	s1,a5,1b02 <video_putch+0x32>
    1b1a:	e1bff0ef          	jal	ra,1934 <video_scroll>
    1b1e:	a004                	sb	s1,0(s0)
    1b20:	b7cd                	j	1b02 <video_putch+0x32>
    1b22:	c701                	beqz	a4,1b2a <video_putch+0x5a>
    1b24:	177d                	addi	a4,a4,-1
    1b26:	a398                	sb	a4,0(a5)
    1b28:	8082                	ret
    1b2a:	bb118713          	addi	a4,gp,-1103 # 20000501 <cursor_y>
    1b2e:	2314                	lbu	a3,0(a4)
    1b30:	c689                	beqz	a3,1b3a <video_putch+0x6a>
    1b32:	16fd                	addi	a3,a3,-1
    1b34:	a314                	sb	a3,0(a4)
    1b36:	473d                	li	a4,15
    1b38:	b7fd                	j	1b26 <video_putch+0x56>
    1b3a:	8082                	ret

00001b3c <video_newline>:
    1b3c:	d64fe2ef          	jal	t0,a0 <__riscv_save_0>
    1b40:	bb118413          	addi	s0,gp,-1103 # 20000501 <cursor_y>
    1b44:	ba018823          	sb	zero,-1104(gp) # 20000500 <cursor_x>
    1b48:	201c                	lbu	a5,0(s0)
    1b4a:	44ad                	li	s1,11
    1b4c:	0785                	addi	a5,a5,1
    1b4e:	0ff7f793          	andi	a5,a5,255
    1b52:	a01c                	sb	a5,0(s0)
    1b54:	00f4f563          	bgeu	s1,a5,1b5e <video_newline+0x22>
    1b58:	dddff0ef          	jal	ra,1934 <video_scroll>
    1b5c:	a004                	sb	s1,0(s0)
    1b5e:	d4cfe06f          	j	aa <__riscv_restore_0>

00001b62 <DMA_Tx_Init>:
    1b62:	d3efe2ef          	jal	t0,a0 <__riscv_save_0>
    1b66:	fcc10113          	addi	sp,sp,-52
    1b6a:	842a                	mv	s0,a0
    1b6c:	c22e                	sw	a1,4(sp)
    1b6e:	84b2                	mv	s1,a2
    1b70:	4581                	li	a1,0
    1b72:	02c00613          	li	a2,44
    1b76:	0028                	addi	a0,sp,8
    1b78:	c036                	sw	a3,0(sp)
    1b7a:	dd0fe0ef          	jal	ra,14a <memset>
    1b7e:	4585                	li	a1,1
    1b80:	4505                	li	a0,1
    1b82:	27bd                	jal	22f0 <RCC_AHBPeriphClockCmd>
    1b84:	8522                	mv	a0,s0
    1b86:	26b9                	jal	1ed4 <DMA_DeInit>
    1b88:	4792                	lw	a5,4(sp)
    1b8a:	4682                	lw	a3,0(sp)
    1b8c:	002c                	addi	a1,sp,8
    1b8e:	c43e                	sw	a5,8(sp)
    1b90:	47c1                	li	a5,16
    1b92:	c83e                	sw	a5,16(sp)
    1b94:	08000793          	li	a5,128
    1b98:	ce3e                	sw	a5,28(sp)
    1b9a:	8522                	mv	a0,s0
    1b9c:	678d                	lui	a5,0x3
    1b9e:	c626                	sw	s1,12(sp)
    1ba0:	ca36                	sw	a3,20(sp)
    1ba2:	d63e                	sw	a5,44(sp)
    1ba4:	cc02                	sw	zero,24(sp)
    1ba6:	d002                	sw	zero,32(sp)
    1ba8:	d202                	sw	zero,36(sp)
    1baa:	d402                	sw	zero,40(sp)
    1bac:	d802                	sw	zero,48(sp)
    1bae:	2e65                	jal	1f66 <DMA_Init>
    1bb0:	03410113          	addi	sp,sp,52
    1bb4:	cf6fe06f          	j	aa <__riscv_restore_0>

00001bb8 <TIM1_CC_IRQHandler>:
    1bb8:	1161                	addi	sp,sp,-8
    1bba:	c026                	sw	s1,0(sp)
    1bbc:	400134b7          	lui	s1,0x40013
    1bc0:	45a1                	li	a1,8
    1bc2:	c0048513          	addi	a0,s1,-1024 # 40012c00 <__global_pointer$+0x200122b0>
    1bc6:	c222                	sw	s0,4(sp)
    1bc8:	195000ef          	jal	ra,255c <TIM_ClearFlag>
    1bcc:	bb218713          	addi	a4,gp,-1102 # 20000502 <ntsc_line>
    1bd0:	231e                	lhu	a5,0(a4)
    1bd2:	bb218413          	addi	s0,gp,-1102 # 20000502 <ntsc_line>
    1bd6:	0785                	addi	a5,a5,1
    1bd8:	07c2                	slli	a5,a5,0x10
    1bda:	83c1                	srli	a5,a5,0x10
    1bdc:	a31e                	sh	a5,0(a4)
    1bde:	231e                	lhu	a5,0(a4)
    1be0:	470d                	li	a4,3
    1be2:	00f70a63          	beq	a4,a5,1bf6 <TIM1_CC_IRQHandler+0x3e>
    1be6:	201e                	lhu	a5,0(s0)
    1be8:	4711                	li	a4,4
    1bea:	00f70663          	beq	a4,a5,1bf6 <TIM1_CC_IRQHandler+0x3e>
    1bee:	201e                	lhu	a5,0(s0)
    1bf0:	4715                	li	a4,5
    1bf2:	0ef71a63          	bne	a4,a5,1ce6 <TIM1_CC_IRQHandler+0x12e>
    1bf6:	6585                	lui	a1,0x1
    1bf8:	40013537          	lui	a0,0x40013
    1bfc:	b0958593          	addi	a1,a1,-1271 # b09 <toktoi+0x265>
    1c00:	c0050513          	addi	a0,a0,-1024 # 40012c00 <__global_pointer$+0x200122b0>
    1c04:	155000ef          	jal	ra,2558 <TIM_SetCompare4>
    1c08:	201e                	lhu	a5,0(s0)
    1c0a:	02700713          	li	a4,39
    1c0e:	02f77c63          	bgeu	a4,a5,1c46 <TIM1_CC_IRQHandler+0x8e>
    1c12:	201e                	lhu	a5,0(s0)
    1c14:	0e700713          	li	a4,231
    1c18:	02f76763          	bltu	a4,a5,1c46 <TIM1_CC_IRQHandler+0x8e>
    1c1c:	201e                	lhu	a5,0(s0)
    1c1e:	400204b7          	lui	s1,0x40020
    1c22:	400135b7          	lui	a1,0x40013
    1c26:	8b85                	andi	a5,a5,1
    1c28:	00279713          	slli	a4,a5,0x2
    1c2c:	bb418793          	addi	a5,gp,-1100 # 20000504 <scandata>
    1c30:	97ba                	add	a5,a5,a4
    1c32:	4390                	lw	a2,0(a5)
    1c34:	05b9                	addi	a1,a1,14
    1c36:	03048513          	addi	a0,s1,48 # 40020030 <__global_pointer$+0x2001f6e0>
    1c3a:	46c5                	li	a3,17
    1c3c:	371d                	jal	1b62 <DMA_Tx_Init>
    1c3e:	4585                	li	a1,1
    1c40:	03048513          	addi	a0,s1,48
    1c44:	2ea9                	jal	1f9e <DMA_Cmd>
    1c46:	201e                	lhu	a5,0(s0)
    1c48:	02600713          	li	a4,38
    1c4c:	08f77163          	bgeu	a4,a5,1cce <TIM1_CC_IRQHandler+0x116>
    1c50:	201e                	lhu	a5,0(s0)
    1c52:	0e600713          	li	a4,230
    1c56:	06f76c63          	bltu	a4,a5,1cce <TIM1_CC_IRQHandler+0x116>
    1c5a:	201a                	lhu	a4,0(s0)
    1c5c:	201e                	lhu	a5,0(s0)
    1c5e:	800006b7          	lui	a3,0x80000
    1c62:	06bd                	addi	a3,a3,15
    1c64:	fd978793          	addi	a5,a5,-39 # 2fd9 <msxfont+0x245>
    1c68:	0742                	slli	a4,a4,0x10
    1c6a:	8ff5                	and	a5,a5,a3
    1c6c:	8341                	srli	a4,a4,0x10
    1c6e:	0007d663          	bgez	a5,1c7a <TIM1_CC_IRQHandler+0xc2>
    1c72:	17fd                	addi	a5,a5,-1
    1c74:	ff07e793          	ori	a5,a5,-16
    1c78:	0785                	addi	a5,a5,1
    1c7a:	fd970693          	addi	a3,a4,-39 # 1ffffd9 <_data_lma+0x1ffca39>
    1c7e:	41f6d713          	srai	a4,a3,0x1f
    1c82:	8b3d                	andi	a4,a4,15
    1c84:	9736                	add	a4,a4,a3
    1c86:	8711                	srai	a4,a4,0x4
    1c88:	0ff7f793          	andi	a5,a5,255
    1c8c:	0ff77713          	andi	a4,a4,255
    1c90:	658d                	lui	a1,0x3
    1c92:	8385                	srli	a5,a5,0x1
    1c94:	0712                	slli	a4,a4,0x4
    1c96:	4601                	li	a2,0
    1c98:	bb418513          	addi	a0,gp,-1100 # 20000504 <scandata>
    1c9c:	d9458593          	addi	a1,a1,-620 # 2d94 <msxfont>
    1ca0:	4341                	li	t1,16
    1ca2:	2016                	lhu	a3,0(s0)
    1ca4:	0685                	addi	a3,a3,1
    1ca6:	8a85                	andi	a3,a3,1
    1ca8:	068a                	slli	a3,a3,0x2
    1caa:	96aa                	add	a3,a3,a0
    1cac:	0006a383          	lw	t2,0(a3) # 80000000 <__global_pointer$+0x5ffff6b0>
    1cb0:	bbc1a683          	lw	a3,-1092(gp) # 2000050c <vram>
    1cb4:	93b2                	add	t2,t2,a2
    1cb6:	96ba                	add	a3,a3,a4
    1cb8:	96b2                	add	a3,a3,a2
    1cba:	2294                	lbu	a3,0(a3)
    1cbc:	0605                	addi	a2,a2,1
    1cbe:	068e                	slli	a3,a3,0x3
    1cc0:	96ae                	add	a3,a3,a1
    1cc2:	96be                	add	a3,a3,a5
    1cc4:	2294                	lbu	a3,0(a3)
    1cc6:	00d38023          	sb	a3,0(t2)
    1cca:	fc661ce3          	bne	a2,t1,1ca2 <TIM1_CC_IRQHandler+0xea>
    1cce:	201e                	lhu	a5,0(s0)
    1cd0:	10600713          	li	a4,262
    1cd4:	00f77463          	bgeu	a4,a5,1cdc <TIM1_CC_IRQHandler+0x124>
    1cd8:	00041023          	sh	zero,0(s0)
    1cdc:	4412                	lw	s0,4(sp)
    1cde:	4482                	lw	s1,0(sp)
    1ce0:	0121                	addi	sp,sp,8
    1ce2:	30200073          	mret
    1ce6:	0e100593          	li	a1,225
    1cea:	c0048513          	addi	a0,s1,-1024
    1cee:	bf19                	j	1c04 <TIM1_CC_IRQHandler+0x4c>

00001cf0 <main>:
    1cf0:	bb0fe2ef          	jal	t0,a0 <__riscv_save_0>
    1cf4:	e000f7b7          	lui	a5,0xe000f
    1cf8:	0007a423          	sw	zero,8(a5) # e000f008 <__global_pointer$+0xc000e6b8>
    1cfc:	4398                	lw	a4,0(a5)
    1cfe:	4509                	li	a0,2
    1d00:	00176713          	ori	a4,a4,1
    1d04:	c398                	sw	a4,0(a5)
    1d06:	2b3d                	jal	2244 <NVIC_PriorityGroupConfig>
    1d08:	c55ff0ef          	jal	ra,195c <video_init>
    1d0c:	bbc1a503          	lw	a0,-1092(gp) # 2000050c <vram>
    1d10:	0c000613          	li	a2,192
    1d14:	4581                	li	a1,0
    1d16:	c34fe0ef          	jal	ra,14a <memset>
    1d1a:	ffefe0ef          	jal	ra,518 <kbd_init>
    1d1e:	ba9ff0ef          	jal	ra,18c6 <basic>
    1d22:	bff5                	j	1d1e <main+0x2e>

00001d24 <SystemInit>:
    1d24:	400217b7          	lui	a5,0x40021
    1d28:	4398                	lw	a4,0(a5)
    1d2a:	fcff06b7          	lui	a3,0xfcff0
    1d2e:	1161                	addi	sp,sp,-8
    1d30:	00176713          	ori	a4,a4,1
    1d34:	c398                	sw	a4,0(a5)
    1d36:	43d8                	lw	a4,4(a5)
    1d38:	6621                	lui	a2,0x8
    1d3a:	8f75                	and	a4,a4,a3
    1d3c:	c3d8                	sw	a4,4(a5)
    1d3e:	4398                	lw	a4,0(a5)
    1d40:	fef706b7          	lui	a3,0xfef70
    1d44:	16fd                	addi	a3,a3,-1
    1d46:	8f75                	and	a4,a4,a3
    1d48:	c398                	sw	a4,0(a5)
    1d4a:	4398                	lw	a4,0(a5)
    1d4c:	fffc06b7          	lui	a3,0xfffc0
    1d50:	16fd                	addi	a3,a3,-1
    1d52:	8f75                	and	a4,a4,a3
    1d54:	c398                	sw	a4,0(a5)
    1d56:	43d8                	lw	a4,4(a5)
    1d58:	76c1                	lui	a3,0xffff0
    1d5a:	16fd                	addi	a3,a3,-1
    1d5c:	8f75                	and	a4,a4,a3
    1d5e:	c3d8                	sw	a4,4(a5)
    1d60:	009f0737          	lui	a4,0x9f0
    1d64:	c798                	sw	a4,8(a5)
    1d66:	c002                	sw	zero,0(sp)
    1d68:	c202                	sw	zero,4(sp)
    1d6a:	4f98                	lw	a4,24(a5)
    1d6c:	400106b7          	lui	a3,0x40010
    1d70:	00176713          	ori	a4,a4,1
    1d74:	cf98                	sw	a4,24(a5)
    1d76:	42d8                	lw	a4,4(a3)
    1d78:	8f51                	or	a4,a4,a2
    1d7a:	c2d8                	sw	a4,4(a3)
    1d7c:	4398                	lw	a4,0(a5)
    1d7e:	66c1                	lui	a3,0x10
    1d80:	00020637          	lui	a2,0x20
    1d84:	8f55                	or	a4,a4,a3
    1d86:	c398                	sw	a4,0(a5)
    1d88:	400216b7          	lui	a3,0x40021
    1d8c:	6709                	lui	a4,0x2
    1d8e:	429c                	lw	a5,0(a3)
    1d90:	8ff1                	and	a5,a5,a2
    1d92:	c23e                	sw	a5,4(sp)
    1d94:	4782                	lw	a5,0(sp)
    1d96:	0785                	addi	a5,a5,1
    1d98:	c03e                	sw	a5,0(sp)
    1d9a:	4792                	lw	a5,4(sp)
    1d9c:	e781                	bnez	a5,1da4 <SystemInit+0x80>
    1d9e:	4782                	lw	a5,0(sp)
    1da0:	fee797e3          	bne	a5,a4,1d8e <SystemInit+0x6a>
    1da4:	400217b7          	lui	a5,0x40021
    1da8:	439c                	lw	a5,0(a5)
    1daa:	00e79713          	slli	a4,a5,0xe
    1dae:	06075863          	bgez	a4,1e1e <SystemInit+0xfa>
    1db2:	4785                	li	a5,1
    1db4:	c23e                	sw	a5,4(sp)
    1db6:	4712                	lw	a4,4(sp)
    1db8:	4785                	li	a5,1
    1dba:	06f71063          	bne	a4,a5,1e1a <SystemInit+0xf6>
    1dbe:	400227b7          	lui	a5,0x40022
    1dc2:	4398                	lw	a4,0(a5)
    1dc4:	76c1                	lui	a3,0xffff0
    1dc6:	16fd                	addi	a3,a3,-1
    1dc8:	9b71                	andi	a4,a4,-4
    1dca:	c398                	sw	a4,0(a5)
    1dcc:	4398                	lw	a4,0(a5)
    1dce:	00176713          	ori	a4,a4,1
    1dd2:	c398                	sw	a4,0(a5)
    1dd4:	400217b7          	lui	a5,0x40021
    1dd8:	43d8                	lw	a4,4(a5)
    1dda:	c3d8                	sw	a4,4(a5)
    1ddc:	43d8                	lw	a4,4(a5)
    1dde:	8f75                	and	a4,a4,a3
    1de0:	c3d8                	sw	a4,4(a5)
    1de2:	43d8                	lw	a4,4(a5)
    1de4:	66c1                	lui	a3,0x10
    1de6:	8f55                	or	a4,a4,a3
    1de8:	c3d8                	sw	a4,4(a5)
    1dea:	4398                	lw	a4,0(a5)
    1dec:	010006b7          	lui	a3,0x1000
    1df0:	8f55                	or	a4,a4,a3
    1df2:	c398                	sw	a4,0(a5)
    1df4:	4398                	lw	a4,0(a5)
    1df6:	00671693          	slli	a3,a4,0x6
    1dfa:	fe06dde3          	bgez	a3,1df4 <SystemInit+0xd0>
    1dfe:	43d8                	lw	a4,4(a5)
    1e00:	400216b7          	lui	a3,0x40021
    1e04:	9b71                	andi	a4,a4,-4
    1e06:	c3d8                	sw	a4,4(a5)
    1e08:	43d8                	lw	a4,4(a5)
    1e0a:	00276713          	ori	a4,a4,2
    1e0e:	c3d8                	sw	a4,4(a5)
    1e10:	4721                	li	a4,8
    1e12:	42dc                	lw	a5,4(a3)
    1e14:	8bb1                	andi	a5,a5,12
    1e16:	fee79ee3          	bne	a5,a4,1e12 <SystemInit+0xee>
    1e1a:	0121                	addi	sp,sp,8
    1e1c:	8082                	ret
    1e1e:	c202                	sw	zero,4(sp)
    1e20:	bf59                	j	1db6 <SystemInit+0x92>
    1e22:	a001                	j	1e22 <SystemInit+0xfe>
    1e24:	a001                	j	1e24 <SystemInit+0x100>

00001e26 <SysTick_Handler>:
    1e26:	a001                	j	1e26 <SysTick_Handler>

00001e28 <SW_Handler>:
    1e28:	a001                	j	1e28 <SW_Handler>

00001e2a <WWDG_IRQHandler>:
    1e2a:	a001                	j	1e2a <WWDG_IRQHandler>

00001e2c <PVD_IRQHandler>:
    1e2c:	a001                	j	1e2c <PVD_IRQHandler>

00001e2e <FLASH_IRQHandler>:
    1e2e:	a001                	j	1e2e <FLASH_IRQHandler>

00001e30 <RCC_IRQHandler>:
    1e30:	a001                	j	1e30 <RCC_IRQHandler>
    1e32:	a001                	j	1e32 <RCC_IRQHandler+0x2>

00001e34 <AWU_IRQHandler>:
    1e34:	a001                	j	1e34 <AWU_IRQHandler>

00001e36 <DMA1_Channel1_IRQHandler>:
    1e36:	a001                	j	1e36 <DMA1_Channel1_IRQHandler>

00001e38 <DMA1_Channel2_IRQHandler>:
    1e38:	a001                	j	1e38 <DMA1_Channel2_IRQHandler>

00001e3a <DMA1_Channel3_IRQHandler>:
    1e3a:	a001                	j	1e3a <DMA1_Channel3_IRQHandler>

00001e3c <DMA1_Channel4_IRQHandler>:
    1e3c:	a001                	j	1e3c <DMA1_Channel4_IRQHandler>

00001e3e <DMA1_Channel5_IRQHandler>:
    1e3e:	a001                	j	1e3e <DMA1_Channel5_IRQHandler>

00001e40 <DMA1_Channel6_IRQHandler>:
    1e40:	a001                	j	1e40 <DMA1_Channel6_IRQHandler>

00001e42 <DMA1_Channel7_IRQHandler>:
    1e42:	a001                	j	1e42 <DMA1_Channel7_IRQHandler>

00001e44 <ADC1_IRQHandler>:
    1e44:	a001                	j	1e44 <ADC1_IRQHandler>

00001e46 <I2C1_EV_IRQHandler>:
    1e46:	a001                	j	1e46 <I2C1_EV_IRQHandler>

00001e48 <I2C1_ER_IRQHandler>:
    1e48:	a001                	j	1e48 <I2C1_ER_IRQHandler>

00001e4a <USART1_IRQHandler>:
    1e4a:	a001                	j	1e4a <USART1_IRQHandler>

00001e4c <SPI1_IRQHandler>:
    1e4c:	a001                	j	1e4c <SPI1_IRQHandler>

00001e4e <TIM1_BRK_IRQHandler>:
    1e4e:	a001                	j	1e4e <TIM1_BRK_IRQHandler>

00001e50 <TIM1_UP_IRQHandler>:
    1e50:	a001                	j	1e50 <TIM1_UP_IRQHandler>

00001e52 <TIM1_TRG_COM_IRQHandler>:
    1e52:	a001                	j	1e52 <TIM1_TRG_COM_IRQHandler>
    1e54:	a001                	j	1e54 <TIM1_TRG_COM_IRQHandler+0x2>

00001e56 <TIM2_IRQHandler>:
    1e56:	a001                	j	1e56 <TIM2_IRQHandler>

00001e58 <handle_reset>:
    1e58:	1ffff197          	auipc	gp,0x1ffff
    1e5c:	af818193          	addi	gp,gp,-1288 # 20000950 <__global_pointer$>
    1e60:	eb018113          	addi	sp,gp,-336 # 20000800 <_eusrstack>
    1e64:	00001517          	auipc	a0,0x1
    1e68:	73c50513          	addi	a0,a0,1852 # 35a0 <_data_lma>
    1e6c:	1fffe597          	auipc	a1,0x1fffe
    1e70:	19458593          	addi	a1,a1,404 # 20000000 <_data_vma>
    1e74:	80818613          	addi	a2,gp,-2040 # 20000158 <_edata>
    1e78:	00c5fa63          	bgeu	a1,a2,1e8c <handle_reset+0x34>
    1e7c:	00052283          	lw	t0,0(a0)
    1e80:	0055a023          	sw	t0,0(a1)
    1e84:	0511                	addi	a0,a0,4
    1e86:	0591                	addi	a1,a1,4
    1e88:	fec5eae3          	bltu	a1,a2,1e7c <handle_reset+0x24>
    1e8c:	80818513          	addi	a0,gp,-2040 # 20000158 <_edata>
    1e90:	bc818593          	addi	a1,gp,-1080 # 20000518 <_ebss>
    1e94:	00b57763          	bgeu	a0,a1,1ea2 <handle_reset+0x4a>
    1e98:	00052023          	sw	zero,0(a0)
    1e9c:	0511                	addi	a0,a0,4
    1e9e:	feb56de3          	bltu	a0,a1,1e98 <handle_reset+0x40>
    1ea2:	08000293          	li	t0,128
    1ea6:	30029073          	csrw	mstatus,t0
    1eaa:	428d                	li	t0,3
    1eac:	80429073          	csrw	0x804,t0
    1eb0:	ffffe297          	auipc	t0,0xffffe
    1eb4:	15028293          	addi	t0,t0,336 # 0 <_sinit>
    1eb8:	0032e293          	ori	t0,t0,3
    1ebc:	30529073          	csrw	mtvec,t0
    1ec0:	e65ff0ef          	jal	ra,1d24 <SystemInit>
    1ec4:	00000297          	auipc	t0,0x0
    1ec8:	e2c28293          	addi	t0,t0,-468 # 1cf0 <main>
    1ecc:	34129073          	csrw	mepc,t0
    1ed0:	30200073          	mret

00001ed4 <DMA_DeInit>:
    1ed4:	411c                	lw	a5,0(a0)
    1ed6:	6741                	lui	a4,0x10
    1ed8:	1779                	addi	a4,a4,-2
    1eda:	8ff9                	and	a5,a5,a4
    1edc:	c11c                	sw	a5,0(a0)
    1ede:	00052023          	sw	zero,0(a0)
    1ee2:	00052223          	sw	zero,4(a0)
    1ee6:	00052423          	sw	zero,8(a0)
    1eea:	400207b7          	lui	a5,0x40020
    1eee:	00052623          	sw	zero,12(a0)
    1ef2:	00878713          	addi	a4,a5,8 # 40020008 <__global_pointer$+0x2001f6b8>
    1ef6:	00e51763          	bne	a0,a4,1f04 <DMA_DeInit+0x30>
    1efa:	43d8                	lw	a4,4(a5)
    1efc:	00f76713          	ori	a4,a4,15
    1f00:	c3d8                	sw	a4,4(a5)
    1f02:	8082                	ret
    1f04:	01c78713          	addi	a4,a5,28
    1f08:	00e51663          	bne	a0,a4,1f14 <DMA_DeInit+0x40>
    1f0c:	43d8                	lw	a4,4(a5)
    1f0e:	0f076713          	ori	a4,a4,240
    1f12:	b7fd                	j	1f00 <DMA_DeInit+0x2c>
    1f14:	03078713          	addi	a4,a5,48
    1f18:	00e51863          	bne	a0,a4,1f28 <DMA_DeInit+0x54>
    1f1c:	43d8                	lw	a4,4(a5)
    1f1e:	6685                	lui	a3,0x1
    1f20:	f0068693          	addi	a3,a3,-256 # f00 <ivalue+0x7c>
    1f24:	8f55                	or	a4,a4,a3
    1f26:	bfe9                	j	1f00 <DMA_DeInit+0x2c>
    1f28:	04478713          	addi	a4,a5,68
    1f2c:	00e51563          	bne	a0,a4,1f36 <DMA_DeInit+0x62>
    1f30:	43d8                	lw	a4,4(a5)
    1f32:	66bd                	lui	a3,0xf
    1f34:	bfc5                	j	1f24 <DMA_DeInit+0x50>
    1f36:	05878713          	addi	a4,a5,88
    1f3a:	00e51663          	bne	a0,a4,1f46 <DMA_DeInit+0x72>
    1f3e:	43d8                	lw	a4,4(a5)
    1f40:	000f06b7          	lui	a3,0xf0
    1f44:	b7c5                	j	1f24 <DMA_DeInit+0x50>
    1f46:	06c78713          	addi	a4,a5,108
    1f4a:	00e51663          	bne	a0,a4,1f56 <DMA_DeInit+0x82>
    1f4e:	43d8                	lw	a4,4(a5)
    1f50:	00f006b7          	lui	a3,0xf00
    1f54:	bfc1                	j	1f24 <DMA_DeInit+0x50>
    1f56:	08078713          	addi	a4,a5,128
    1f5a:	fae514e3          	bne	a0,a4,1f02 <DMA_DeInit+0x2e>
    1f5e:	43d8                	lw	a4,4(a5)
    1f60:	0f0006b7          	lui	a3,0xf000
    1f64:	b7c1                	j	1f24 <DMA_DeInit+0x50>

00001f66 <DMA_Init>:
    1f66:	4118                	lw	a4,0(a0)
    1f68:	77e1                	lui	a5,0xffff8
    1f6a:	07bd                	addi	a5,a5,15
    1f6c:	5194                	lw	a3,32(a1)
    1f6e:	8f7d                	and	a4,a4,a5
    1f70:	459c                	lw	a5,8(a1)
    1f72:	8fd5                	or	a5,a5,a3
    1f74:	4994                	lw	a3,16(a1)
    1f76:	8fd5                	or	a5,a5,a3
    1f78:	49d4                	lw	a3,20(a1)
    1f7a:	8fd5                	or	a5,a5,a3
    1f7c:	4d94                	lw	a3,24(a1)
    1f7e:	8fd5                	or	a5,a5,a3
    1f80:	4dd4                	lw	a3,28(a1)
    1f82:	8fd5                	or	a5,a5,a3
    1f84:	51d4                	lw	a3,36(a1)
    1f86:	8fd5                	or	a5,a5,a3
    1f88:	5594                	lw	a3,40(a1)
    1f8a:	8fd5                	or	a5,a5,a3
    1f8c:	8fd9                	or	a5,a5,a4
    1f8e:	c11c                	sw	a5,0(a0)
    1f90:	45dc                	lw	a5,12(a1)
    1f92:	c15c                	sw	a5,4(a0)
    1f94:	419c                	lw	a5,0(a1)
    1f96:	c51c                	sw	a5,8(a0)
    1f98:	41dc                	lw	a5,4(a1)
    1f9a:	c55c                	sw	a5,12(a0)
    1f9c:	8082                	ret

00001f9e <DMA_Cmd>:
    1f9e:	411c                	lw	a5,0(a0)
    1fa0:	c589                	beqz	a1,1faa <DMA_Cmd+0xc>
    1fa2:	0017e793          	ori	a5,a5,1
    1fa6:	c11c                	sw	a5,0(a0)
    1fa8:	8082                	ret
    1faa:	6741                	lui	a4,0x10
    1fac:	1779                	addi	a4,a4,-2
    1fae:	8ff9                	and	a5,a5,a4
    1fb0:	bfdd                	j	1fa6 <DMA_Cmd+0x8>

00001fb2 <EXTI_Init>:
    1fb2:	4158                	lw	a4,4(a0)
    1fb4:	00052303          	lw	t1,0(a0)
    1fb8:	454c                	lw	a1,12(a0)
    1fba:	40010637          	lui	a2,0x40010
    1fbe:	40060793          	addi	a5,a2,1024 # 40010400 <__global_pointer$+0x2000fab0>
    1fc2:	973e                	add	a4,a4,a5
    1fc4:	fff34693          	not	a3,t1
    1fc8:	c5b1                	beqz	a1,2014 <EXTI_Init+0x62>
    1fca:	40062583          	lw	a1,1024(a2)
    1fce:	8df5                	and	a1,a1,a3
    1fd0:	40b62023          	sw	a1,1024(a2)
    1fd4:	43d0                	lw	a2,4(a5)
    1fd6:	8ef1                	and	a3,a3,a2
    1fd8:	c3d4                	sw	a3,4(a5)
    1fda:	4314                	lw	a3,0(a4)
    1fdc:	0066e6b3          	or	a3,a3,t1
    1fe0:	c314                	sw	a3,0(a4)
    1fe2:	4118                	lw	a4,0(a0)
    1fe4:	4790                	lw	a2,8(a5)
    1fe6:	fff74693          	not	a3,a4
    1fea:	8e75                	and	a2,a2,a3
    1fec:	c790                	sw	a2,8(a5)
    1fee:	47d0                	lw	a2,12(a5)
    1ff0:	8ef1                	and	a3,a3,a2
    1ff2:	c7d4                	sw	a3,12(a5)
    1ff4:	4514                	lw	a3,8(a0)
    1ff6:	4641                	li	a2,16
    1ff8:	00c69963          	bne	a3,a2,200a <EXTI_Init+0x58>
    1ffc:	4794                	lw	a3,8(a5)
    1ffe:	8ed9                	or	a3,a3,a4
    2000:	c794                	sw	a3,8(a5)
    2002:	47d4                	lw	a3,12(a5)
    2004:	8f55                	or	a4,a4,a3
    2006:	c7d8                	sw	a4,12(a5)
    2008:	8082                	ret
    200a:	97b6                	add	a5,a5,a3
    200c:	4394                	lw	a3,0(a5)
    200e:	8f55                	or	a4,a4,a3
    2010:	c398                	sw	a4,0(a5)
    2012:	8082                	ret
    2014:	431c                	lw	a5,0(a4)
    2016:	8ff5                	and	a5,a5,a3
    2018:	c31c                	sw	a5,0(a4)
    201a:	8082                	ret

0000201c <EXTI_GetITStatus>:
    201c:	400107b7          	lui	a5,0x40010
    2020:	40078713          	addi	a4,a5,1024 # 40010400 <__global_pointer$+0x2000fab0>
    2024:	4007a783          	lw	a5,1024(a5)
    2028:	4b58                	lw	a4,20(a4)
    202a:	8f69                	and	a4,a4,a0
    202c:	c709                	beqz	a4,2036 <EXTI_GetITStatus+0x1a>
    202e:	8d7d                	and	a0,a0,a5
    2030:	00a03533          	snez	a0,a0
    2034:	8082                	ret
    2036:	4501                	li	a0,0
    2038:	8082                	ret

0000203a <EXTI_ClearITPendingBit>:
    203a:	400107b7          	lui	a5,0x40010
    203e:	40a7aa23          	sw	a0,1044(a5) # 40010414 <__global_pointer$+0x2000fac4>
    2042:	8082                	ret

00002044 <FLASH_Lock>:
    2044:	40022737          	lui	a4,0x40022
    2048:	4b1c                	lw	a5,16(a4)
    204a:	0807e793          	ori	a5,a5,128
    204e:	cb1c                	sw	a5,16(a4)
    2050:	8082                	ret

00002052 <FLASH_Unlock_Fast>:
    2052:	456706b7          	lui	a3,0x45670
    2056:	400227b7          	lui	a5,0x40022
    205a:	12368693          	addi	a3,a3,291 # 45670123 <__global_pointer$+0x2566f7d3>
    205e:	cdef9737          	lui	a4,0xcdef9
    2062:	c3d4                	sw	a3,4(a5)
    2064:	9ab70713          	addi	a4,a4,-1621 # cdef89ab <__global_pointer$+0xadef805b>
    2068:	c3d8                	sw	a4,4(a5)
    206a:	d3d4                	sw	a3,36(a5)
    206c:	d3d8                	sw	a4,36(a5)
    206e:	8082                	ret

00002070 <FLASH_Lock_Fast>:
    2070:	830fe2ef          	jal	t0,a0 <__riscv_save_0>
    2074:	3fc1                	jal	2044 <FLASH_Lock>
    2076:	834fe06f          	j	aa <__riscv_restore_0>

0000207a <FLASH_BufReset>:
    207a:	400227b7          	lui	a5,0x40022
    207e:	4b98                	lw	a4,16(a5)
    2080:	66c1                	lui	a3,0x10
    2082:	8f55                	or	a4,a4,a3
    2084:	cb98                	sw	a4,16(a5)
    2086:	4b98                	lw	a4,16(a5)
    2088:	000806b7          	lui	a3,0x80
    208c:	8f55                	or	a4,a4,a3
    208e:	cb98                	sw	a4,16(a5)
    2090:	47d8                	lw	a4,12(a5)
    2092:	8b05                	andi	a4,a4,1
    2094:	ff75                	bnez	a4,2090 <FLASH_BufReset+0x16>
    2096:	4b98                	lw	a4,16(a5)
    2098:	76c1                	lui	a3,0xffff0
    209a:	16fd                	addi	a3,a3,-1
    209c:	8f75                	and	a4,a4,a3
    209e:	cb98                	sw	a4,16(a5)
    20a0:	8082                	ret

000020a2 <FLASH_BufLoad>:
    20a2:	f80007b7          	lui	a5,0xf8000
    20a6:	97aa                	add	a5,a5,a0
    20a8:	6711                	lui	a4,0x4
    20aa:	02e7f663          	bgeu	a5,a4,20d6 <FLASH_BufLoad+0x34>
    20ae:	400227b7          	lui	a5,0x40022
    20b2:	4b98                	lw	a4,16(a5)
    20b4:	66c1                	lui	a3,0x10
    20b6:	8f55                	or	a4,a4,a3
    20b8:	cb98                	sw	a4,16(a5)
    20ba:	c10c                	sw	a1,0(a0)
    20bc:	4b98                	lw	a4,16(a5)
    20be:	000406b7          	lui	a3,0x40
    20c2:	8f55                	or	a4,a4,a3
    20c4:	cb98                	sw	a4,16(a5)
    20c6:	47d8                	lw	a4,12(a5)
    20c8:	8b05                	andi	a4,a4,1
    20ca:	ff75                	bnez	a4,20c6 <FLASH_BufLoad+0x24>
    20cc:	4b98                	lw	a4,16(a5)
    20ce:	76c1                	lui	a3,0xffff0
    20d0:	16fd                	addi	a3,a3,-1
    20d2:	8f75                	and	a4,a4,a3
    20d4:	cb98                	sw	a4,16(a5)
    20d6:	8082                	ret

000020d8 <FLASH_ErasePage_Fast>:
    20d8:	f80007b7          	lui	a5,0xf8000
    20dc:	97aa                	add	a5,a5,a0
    20de:	6711                	lui	a4,0x4
    20e0:	02e7f663          	bgeu	a5,a4,210c <FLASH_ErasePage_Fast+0x34>
    20e4:	400227b7          	lui	a5,0x40022
    20e8:	4b98                	lw	a4,16(a5)
    20ea:	000206b7          	lui	a3,0x20
    20ee:	8f55                	or	a4,a4,a3
    20f0:	cb98                	sw	a4,16(a5)
    20f2:	cbc8                	sw	a0,20(a5)
    20f4:	4b98                	lw	a4,16(a5)
    20f6:	04076713          	ori	a4,a4,64
    20fa:	cb98                	sw	a4,16(a5)
    20fc:	47d8                	lw	a4,12(a5)
    20fe:	8b05                	andi	a4,a4,1
    2100:	ff75                	bnez	a4,20fc <FLASH_ErasePage_Fast+0x24>
    2102:	4b98                	lw	a4,16(a5)
    2104:	7681                	lui	a3,0xfffe0
    2106:	16fd                	addi	a3,a3,-1
    2108:	8f75                	and	a4,a4,a3
    210a:	cb98                	sw	a4,16(a5)
    210c:	8082                	ret

0000210e <FLASH_ProgramPage_Fast>:
    210e:	f80007b7          	lui	a5,0xf8000
    2112:	97aa                	add	a5,a5,a0
    2114:	6711                	lui	a4,0x4
    2116:	02e7f563          	bgeu	a5,a4,2140 <FLASH_ProgramPage_Fast+0x32>
    211a:	400227b7          	lui	a5,0x40022
    211e:	4b98                	lw	a4,16(a5)
    2120:	66c1                	lui	a3,0x10
    2122:	8f55                	or	a4,a4,a3
    2124:	cb98                	sw	a4,16(a5)
    2126:	cbc8                	sw	a0,20(a5)
    2128:	4b98                	lw	a4,16(a5)
    212a:	04076713          	ori	a4,a4,64
    212e:	cb98                	sw	a4,16(a5)
    2130:	47d8                	lw	a4,12(a5)
    2132:	8b05                	andi	a4,a4,1
    2134:	ff75                	bnez	a4,2130 <FLASH_ProgramPage_Fast+0x22>
    2136:	4b98                	lw	a4,16(a5)
    2138:	76c1                	lui	a3,0xffff0
    213a:	16fd                	addi	a3,a3,-1
    213c:	8f75                	and	a4,a4,a3
    213e:	cb98                	sw	a4,16(a5)
    2140:	8082                	ret

00002142 <GPIO_Init>:
    2142:	459c                	lw	a5,8(a1)
    2144:	1161                	addi	sp,sp,-8
    2146:	c222                	sw	s0,4(sp)
    2148:	c026                	sw	s1,0(sp)
    214a:	0107f713          	andi	a4,a5,16
    214e:	00f7f313          	andi	t1,a5,15
    2152:	c701                	beqz	a4,215a <GPIO_Init+0x18>
    2154:	41d8                	lw	a4,4(a1)
    2156:	00e36333          	or	t1,t1,a4
    215a:	2192                	lhu	a2,0(a1)
    215c:	0ff67713          	andi	a4,a2,255
    2160:	c729                	beqz	a4,21aa <GPIO_Init+0x68>
    2162:	00052383          	lw	t2,0(a0)
    2166:	4701                	li	a4,0
    2168:	02800413          	li	s0,40
    216c:	04800493          	li	s1,72
    2170:	4685                	li	a3,1
    2172:	00e695b3          	sll	a1,a3,a4
    2176:	00b676b3          	and	a3,a2,a1
    217a:	02d59263          	bne	a1,a3,219e <GPIO_Init+0x5c>
    217e:	00271293          	slli	t0,a4,0x2
    2182:	46bd                	li	a3,15
    2184:	005696b3          	sll	a3,a3,t0
    2188:	fff6c693          	not	a3,a3
    218c:	0076f3b3          	and	t2,a3,t2
    2190:	005312b3          	sll	t0,t1,t0
    2194:	0072e3b3          	or	t2,t0,t2
    2198:	06879763          	bne	a5,s0,2206 <GPIO_Init+0xc4>
    219c:	c94c                	sw	a1,20(a0)
    219e:	0705                	addi	a4,a4,1
    21a0:	46a1                	li	a3,8
    21a2:	fcd717e3          	bne	a4,a3,2170 <GPIO_Init+0x2e>
    21a6:	00752023          	sw	t2,0(a0)
    21aa:	0ff00713          	li	a4,255
    21ae:	04c77863          	bgeu	a4,a2,21fe <GPIO_Init+0xbc>
    21b2:	00452383          	lw	t2,4(a0)
    21b6:	46a1                	li	a3,8
    21b8:	02800413          	li	s0,40
    21bc:	04800493          	li	s1,72
    21c0:	4705                	li	a4,1
    21c2:	00d712b3          	sll	t0,a4,a3
    21c6:	00567733          	and	a4,a2,t0
    21ca:	02e29463          	bne	t0,a4,21f2 <GPIO_Init+0xb0>
    21ce:	00269713          	slli	a4,a3,0x2
    21d2:	1701                	addi	a4,a4,-32
    21d4:	45bd                	li	a1,15
    21d6:	00e595b3          	sll	a1,a1,a4
    21da:	fff5c593          	not	a1,a1
    21de:	0075f3b3          	and	t2,a1,t2
    21e2:	00e31733          	sll	a4,t1,a4
    21e6:	007763b3          	or	t2,a4,t2
    21ea:	02879263          	bne	a5,s0,220e <GPIO_Init+0xcc>
    21ee:	00552a23          	sw	t0,20(a0)
    21f2:	0685                	addi	a3,a3,1
    21f4:	4741                	li	a4,16
    21f6:	fce695e3          	bne	a3,a4,21c0 <GPIO_Init+0x7e>
    21fa:	00752223          	sw	t2,4(a0)
    21fe:	4412                	lw	s0,4(sp)
    2200:	4482                	lw	s1,0(sp)
    2202:	0121                	addi	sp,sp,8
    2204:	8082                	ret
    2206:	f8979ce3          	bne	a5,s1,219e <GPIO_Init+0x5c>
    220a:	c90c                	sw	a1,16(a0)
    220c:	bf49                	j	219e <GPIO_Init+0x5c>
    220e:	fe9792e3          	bne	a5,s1,21f2 <GPIO_Init+0xb0>
    2212:	00552823          	sw	t0,16(a0)
    2216:	bff1                	j	21f2 <GPIO_Init+0xb0>

00002218 <GPIO_ReadInputDataBit>:
    2218:	4508                	lw	a0,8(a0)
    221a:	8d6d                	and	a0,a0,a1
    221c:	00a03533          	snez	a0,a0
    2220:	8082                	ret

00002222 <GPIO_EXTILineConfig>:
    2222:	40010737          	lui	a4,0x40010
    2226:	4714                	lw	a3,8(a4)
    2228:	0586                	slli	a1,a1,0x1
    222a:	478d                	li	a5,3
    222c:	00b797b3          	sll	a5,a5,a1
    2230:	fff7c793          	not	a5,a5
    2234:	8ff5                	and	a5,a5,a3
    2236:	c71c                	sw	a5,8(a4)
    2238:	471c                	lw	a5,8(a4)
    223a:	00b515b3          	sll	a1,a0,a1
    223e:	8ddd                	or	a1,a1,a5
    2240:	c70c                	sw	a1,8(a4)
    2242:	8082                	ret

00002244 <NVIC_PriorityGroupConfig>:
    2244:	bca1a023          	sw	a0,-1088(gp) # 20000510 <NVIC_Priority_Group>
    2248:	8082                	ret

0000224a <NVIC_Init>:
    224a:	bc018793          	addi	a5,gp,-1088 # 20000510 <NVIC_Priority_Group>
    224e:	4394                	lw	a3,0(a5)
    2250:	2118                	lbu	a4,0(a0)
    2252:	e681                	bnez	a3,225a <NVIC_Init+0x10>
    2254:	213c                	lbu	a5,2(a0)
    2256:	0792                	slli	a5,a5,0x4
    2258:	a821                	j	2270 <NVIC_Init+0x26>
    225a:	4394                	lw	a3,0(a5)
    225c:	4605                	li	a2,1
    225e:	02c69f63          	bne	a3,a2,229c <NVIC_Init+0x52>
    2262:	213c                	lbu	a5,2(a0)
    2264:	3110                	lbu	a2,1(a0)
    2266:	0792                	slli	a5,a5,0x4
    2268:	00d61463          	bne	a2,a3,2270 <NVIC_Init+0x26>
    226c:	f807e793          	ori	a5,a5,-128
    2270:	e000e6b7          	lui	a3,0xe000e
    2274:	0ff7f793          	andi	a5,a5,255
    2278:	96ba                	add	a3,a3,a4
    227a:	40f68023          	sb	a5,1024(a3) # e000e400 <__global_pointer$+0xc000dab0>
    227e:	4685                	li	a3,1
    2280:	00575793          	srli	a5,a4,0x5
    2284:	00e69733          	sll	a4,a3,a4
    2288:	4154                	lw	a3,4(a0)
    228a:	c2a5                	beqz	a3,22ea <NVIC_Init+0xa0>
    228c:	04078793          	addi	a5,a5,64 # 40022040 <__global_pointer$+0x200216f0>
    2290:	078a                	slli	a5,a5,0x2
    2292:	e000e6b7          	lui	a3,0xe000e
    2296:	97b6                	add	a5,a5,a3
    2298:	c398                	sw	a4,0(a5)
    229a:	8082                	ret
    229c:	438c                	lw	a1,0(a5)
    229e:	4689                	li	a3,2
    22a0:	02d59163          	bne	a1,a3,22c2 <NVIC_Init+0x78>
    22a4:	3114                	lbu	a3,1(a0)
    22a6:	213c                	lbu	a5,2(a0)
    22a8:	00d66563          	bltu	a2,a3,22b2 <NVIC_Init+0x68>
    22ac:	068a                	slli	a3,a3,0x2
    22ae:	97b6                	add	a5,a5,a3
    22b0:	b75d                	j	2256 <NVIC_Init+0xc>
    22b2:	03e68693          	addi	a3,a3,62 # e000e03e <__global_pointer$+0xc000d6ee>
    22b6:	068a                	slli	a3,a3,0x2
    22b8:	97b6                	add	a5,a5,a3
    22ba:	0ff7f793          	andi	a5,a5,255
    22be:	0792                	slli	a5,a5,0x4
    22c0:	b775                	j	226c <NVIC_Init+0x22>
    22c2:	4390                	lw	a2,0(a5)
    22c4:	468d                	li	a3,3
    22c6:	00d61c63          	bne	a2,a3,22de <NVIC_Init+0x94>
    22ca:	3114                	lbu	a3,1(a0)
    22cc:	213c                	lbu	a5,2(a0)
    22ce:	00d66463          	bltu	a2,a3,22d6 <NVIC_Init+0x8c>
    22d2:	0686                	slli	a3,a3,0x1
    22d4:	bfe9                	j	22ae <NVIC_Init+0x64>
    22d6:	07c68693          	addi	a3,a3,124
    22da:	0686                	slli	a3,a3,0x1
    22dc:	bff1                	j	22b8 <NVIC_Init+0x6e>
    22de:	4394                	lw	a3,0(a5)
    22e0:	4791                	li	a5,4
    22e2:	f8f69ee3          	bne	a3,a5,227e <NVIC_Init+0x34>
    22e6:	311c                	lbu	a5,1(a0)
    22e8:	b7bd                	j	2256 <NVIC_Init+0xc>
    22ea:	06078793          	addi	a5,a5,96
    22ee:	b74d                	j	2290 <NVIC_Init+0x46>

000022f0 <RCC_AHBPeriphClockCmd>:
    22f0:	c599                	beqz	a1,22fe <RCC_AHBPeriphClockCmd+0xe>
    22f2:	40021737          	lui	a4,0x40021
    22f6:	4b5c                	lw	a5,20(a4)
    22f8:	8d5d                	or	a0,a0,a5
    22fa:	cb48                	sw	a0,20(a4)
    22fc:	8082                	ret
    22fe:	400217b7          	lui	a5,0x40021
    2302:	4bd8                	lw	a4,20(a5)
    2304:	fff54513          	not	a0,a0
    2308:	8d79                	and	a0,a0,a4
    230a:	cbc8                	sw	a0,20(a5)
    230c:	8082                	ret

0000230e <RCC_APB2PeriphClockCmd>:
    230e:	c599                	beqz	a1,231c <RCC_APB2PeriphClockCmd+0xe>
    2310:	40021737          	lui	a4,0x40021
    2314:	4f1c                	lw	a5,24(a4)
    2316:	8d5d                	or	a0,a0,a5
    2318:	cf08                	sw	a0,24(a4)
    231a:	8082                	ret
    231c:	400217b7          	lui	a5,0x40021
    2320:	4f98                	lw	a4,24(a5)
    2322:	fff54513          	not	a0,a0
    2326:	8d79                	and	a0,a0,a4
    2328:	cf88                	sw	a0,24(a5)
    232a:	8082                	ret

0000232c <SPI_Init>:
    232c:	211a                	lhu	a4,0(a0)
    232e:	678d                	lui	a5,0x3
    2330:	04078793          	addi	a5,a5,64 # 3040 <msxfont+0x2ac>
    2334:	21b6                	lhu	a3,2(a1)
    2336:	8f7d                	and	a4,a4,a5
    2338:	219e                	lhu	a5,0(a1)
    233a:	8fd5                	or	a5,a5,a3
    233c:	21d6                	lhu	a3,4(a1)
    233e:	8fd5                	or	a5,a5,a3
    2340:	21f6                	lhu	a3,6(a1)
    2342:	8fd5                	or	a5,a5,a3
    2344:	2596                	lhu	a3,8(a1)
    2346:	8fd5                	or	a5,a5,a3
    2348:	25b6                	lhu	a3,10(a1)
    234a:	8fd5                	or	a5,a5,a3
    234c:	25d6                	lhu	a3,12(a1)
    234e:	8fd5                	or	a5,a5,a3
    2350:	25f6                	lhu	a3,14(a1)
    2352:	8fd5                	or	a5,a5,a3
    2354:	8fd9                	or	a5,a5,a4
    2356:	a11e                	sh	a5,0(a0)
    2358:	299e                	lhu	a5,16(a1)
    235a:	a91e                	sh	a5,16(a0)
    235c:	8082                	ret

0000235e <SPI_Cmd>:
    235e:	211e                	lhu	a5,0(a0)
    2360:	c589                	beqz	a1,236a <SPI_Cmd+0xc>
    2362:	0407e793          	ori	a5,a5,64
    2366:	a11e                	sh	a5,0(a0)
    2368:	8082                	ret
    236a:	07c2                	slli	a5,a5,0x10
    236c:	83c1                	srli	a5,a5,0x10
    236e:	fbf7f793          	andi	a5,a5,-65
    2372:	07c2                	slli	a5,a5,0x10
    2374:	83c1                	srli	a5,a5,0x10
    2376:	bfc5                	j	2366 <SPI_Cmd+0x8>

00002378 <SPI_I2S_DMACmd>:
    2378:	215e                	lhu	a5,4(a0)
    237a:	c601                	beqz	a2,2382 <SPI_I2S_DMACmd+0xa>
    237c:	8ddd                	or	a1,a1,a5
    237e:	a14e                	sh	a1,4(a0)
    2380:	8082                	ret
    2382:	fff5c593          	not	a1,a1
    2386:	8dfd                	and	a1,a1,a5
    2388:	bfdd                	j	237e <SPI_I2S_DMACmd+0x6>

0000238a <TIM_TimeBaseInit>:
    238a:	211e                	lhu	a5,0(a0)
    238c:	40013737          	lui	a4,0x40013
    2390:	c0070713          	addi	a4,a4,-1024 # 40012c00 <__global_pointer$+0x200122b0>
    2394:	07c2                	slli	a5,a5,0x10
    2396:	83c1                	srli	a5,a5,0x10
    2398:	00e50663          	beq	a0,a4,23a4 <TIM_TimeBaseInit+0x1a>
    239c:	40000737          	lui	a4,0x40000
    23a0:	00e51663          	bne	a0,a4,23ac <TIM_TimeBaseInit+0x22>
    23a4:	21ba                	lhu	a4,2(a1)
    23a6:	f8f7f793          	andi	a5,a5,-113
    23aa:	8fd9                	or	a5,a5,a4
    23ac:	21fa                	lhu	a4,6(a1)
    23ae:	cff7f793          	andi	a5,a5,-769
    23b2:	07c2                	slli	a5,a5,0x10
    23b4:	83c1                	srli	a5,a5,0x10
    23b6:	8fd9                	or	a5,a5,a4
    23b8:	a11e                	sh	a5,0(a0)
    23ba:	21de                	lhu	a5,4(a1)
    23bc:	b55e                	sh	a5,44(a0)
    23be:	219e                	lhu	a5,0(a1)
    23c0:	b51e                	sh	a5,40(a0)
    23c2:	400137b7          	lui	a5,0x40013
    23c6:	c0078793          	addi	a5,a5,-1024 # 40012c00 <__global_pointer$+0x200122b0>
    23ca:	00f51463          	bne	a0,a5,23d2 <TIM_TimeBaseInit+0x48>
    23ce:	259c                	lbu	a5,8(a1)
    23d0:	b91e                	sh	a5,48(a0)
    23d2:	4785                	li	a5,1
    23d4:	a95e                	sh	a5,20(a0)
    23d6:	8082                	ret

000023d8 <TIM_OC3Init>:
    23d8:	311e                	lhu	a5,32(a0)
    23da:	2192                	lhu	a2,0(a1)
    23dc:	0085d303          	lhu	t1,8(a1)
    23e0:	07c2                	slli	a5,a5,0x10
    23e2:	83c1                	srli	a5,a5,0x10
    23e4:	eff7f793          	andi	a5,a5,-257
    23e8:	07c2                	slli	a5,a5,0x10
    23ea:	83c1                	srli	a5,a5,0x10
    23ec:	b11e                	sh	a5,32(a0)
    23ee:	311e                	lhu	a5,32(a0)
    23f0:	2156                	lhu	a3,4(a0)
    23f2:	2d5a                	lhu	a4,28(a0)
    23f4:	07c2                	slli	a5,a5,0x10
    23f6:	83c1                	srli	a5,a5,0x10
    23f8:	0742                	slli	a4,a4,0x10
    23fa:	8341                	srli	a4,a4,0x10
    23fc:	f8c77713          	andi	a4,a4,-116
    2400:	8f51                	or	a4,a4,a2
    2402:	21b2                	lhu	a2,2(a1)
    2404:	dff7f793          	andi	a5,a5,-513
    2408:	06c2                	slli	a3,a3,0x10
    240a:	00666633          	or	a2,a2,t1
    240e:	0622                	slli	a2,a2,0x8
    2410:	8fd1                	or	a5,a5,a2
    2412:	01079613          	slli	a2,a5,0x10
    2416:	400137b7          	lui	a5,0x40013
    241a:	c0078793          	addi	a5,a5,-1024 # 40012c00 <__global_pointer$+0x200122b0>
    241e:	82c1                	srli	a3,a3,0x10
    2420:	8241                	srli	a2,a2,0x10
    2422:	02f51f63          	bne	a0,a5,2460 <TIM_OC3Init+0x88>
    2426:	77fd                	lui	a5,0xfffff
    2428:	7ff78793          	addi	a5,a5,2047 # fffff7ff <__global_pointer$+0xdfffeeaf>
    242c:	8ff1                	and	a5,a5,a2
    242e:	25b2                	lhu	a2,10(a1)
    2430:	00c5d303          	lhu	t1,12(a1)
    2434:	0622                	slli	a2,a2,0x8
    2436:	8fd1                	or	a5,a5,a2
    2438:	21d2                	lhu	a2,4(a1)
    243a:	07c2                	slli	a5,a5,0x10
    243c:	83c1                	srli	a5,a5,0x10
    243e:	0622                	slli	a2,a2,0x8
    2440:	bff7f793          	andi	a5,a5,-1025
    2444:	8fd1                	or	a5,a5,a2
    2446:	01079613          	slli	a2,a5,0x10
    244a:	77f5                	lui	a5,0xffffd
    244c:	17fd                	addi	a5,a5,-1
    244e:	8efd                	and	a3,a3,a5
    2450:	25fe                	lhu	a5,14(a1)
    2452:	8241                	srli	a2,a2,0x10
    2454:	0067e7b3          	or	a5,a5,t1
    2458:	0792                	slli	a5,a5,0x4
    245a:	8edd                	or	a3,a3,a5
    245c:	06c2                	slli	a3,a3,0x10
    245e:	82c1                	srli	a3,a3,0x10
    2460:	21fe                	lhu	a5,6(a1)
    2462:	a156                	sh	a3,4(a0)
    2464:	ad5a                	sh	a4,28(a0)
    2466:	dd5c                	sw	a5,60(a0)
    2468:	b112                	sh	a2,32(a0)
    246a:	8082                	ret

0000246c <TIM_OC4Init>:
    246c:	311a                	lhu	a4,32(a0)
    246e:	77fd                	lui	a5,0xfffff
    2470:	17fd                	addi	a5,a5,-1
    2472:	8ff9                	and	a5,a5,a4
    2474:	b11e                	sh	a5,32(a0)
    2476:	02055303          	lhu	t1,32(a0)
    247a:	215a                	lhu	a4,4(a0)
    247c:	2d5e                	lhu	a5,28(a0)
    247e:	76e5                	lui	a3,0xffff9
    2480:	cff68693          	addi	a3,a3,-769 # ffff8cff <__global_pointer$+0xdfff83af>
    2484:	8efd                	and	a3,a3,a5
    2486:	219e                	lhu	a5,0(a1)
    2488:	01071613          	slli	a2,a4,0x10
    248c:	21ba                	lhu	a4,2(a1)
    248e:	07a2                	slli	a5,a5,0x8
    2490:	8edd                	or	a3,a3,a5
    2492:	77f9                	lui	a5,0xffffe
    2494:	17fd                	addi	a5,a5,-1
    2496:	0067f7b3          	and	a5,a5,t1
    249a:	0085d303          	lhu	t1,8(a1)
    249e:	06c2                	slli	a3,a3,0x10
    24a0:	8241                	srli	a2,a2,0x10
    24a2:	00676733          	or	a4,a4,t1
    24a6:	0732                	slli	a4,a4,0xc
    24a8:	8fd9                	or	a5,a5,a4
    24aa:	40013737          	lui	a4,0x40013
    24ae:	07c2                	slli	a5,a5,0x10
    24b0:	c0070713          	addi	a4,a4,-1024 # 40012c00 <__global_pointer$+0x200122b0>
    24b4:	82c1                	srli	a3,a3,0x10
    24b6:	83c1                	srli	a5,a5,0x10
    24b8:	00e51b63          	bne	a0,a4,24ce <TIM_OC4Init+0x62>
    24bc:	7771                	lui	a4,0xffffc
    24be:	177d                	addi	a4,a4,-1
    24c0:	8f71                	and	a4,a4,a2
    24c2:	25d2                	lhu	a2,12(a1)
    24c4:	061a                	slli	a2,a2,0x6
    24c6:	8f51                	or	a4,a4,a2
    24c8:	01071613          	slli	a2,a4,0x10
    24cc:	8241                	srli	a2,a2,0x10
    24ce:	21fa                	lhu	a4,6(a1)
    24d0:	a152                	sh	a2,4(a0)
    24d2:	ad56                	sh	a3,28(a0)
    24d4:	c138                	sw	a4,64(a0)
    24d6:	b11e                	sh	a5,32(a0)
    24d8:	8082                	ret

000024da <TIM_Cmd>:
    24da:	211e                	lhu	a5,0(a0)
    24dc:	c589                	beqz	a1,24e6 <TIM_Cmd+0xc>
    24de:	0017e793          	ori	a5,a5,1
    24e2:	a11e                	sh	a5,0(a0)
    24e4:	8082                	ret
    24e6:	07c2                	slli	a5,a5,0x10
    24e8:	83c1                	srli	a5,a5,0x10
    24ea:	9bf9                	andi	a5,a5,-2
    24ec:	07c2                	slli	a5,a5,0x10
    24ee:	83c1                	srli	a5,a5,0x10
    24f0:	bfcd                	j	24e2 <TIM_Cmd+0x8>

000024f2 <TIM_CtrlPWMOutputs>:
    24f2:	04455783          	lhu	a5,68(a0)
    24f6:	c591                	beqz	a1,2502 <TIM_CtrlPWMOutputs+0x10>
    24f8:	6721                	lui	a4,0x8
    24fa:	8fd9                	or	a5,a5,a4
    24fc:	04f51223          	sh	a5,68(a0)
    2500:	8082                	ret
    2502:	07c6                	slli	a5,a5,0x11
    2504:	83c5                	srli	a5,a5,0x11
    2506:	bfdd                	j	24fc <TIM_CtrlPWMOutputs+0xa>

00002508 <TIM_ITConfig>:
    2508:	255e                	lhu	a5,12(a0)
    250a:	c601                	beqz	a2,2512 <TIM_ITConfig+0xa>
    250c:	8ddd                	or	a1,a1,a5
    250e:	a54e                	sh	a1,12(a0)
    2510:	8082                	ret
    2512:	fff5c593          	not	a1,a1
    2516:	8dfd                	and	a1,a1,a5
    2518:	bfdd                	j	250e <TIM_ITConfig+0x6>

0000251a <TIM_ARRPreloadConfig>:
    251a:	211e                	lhu	a5,0(a0)
    251c:	c589                	beqz	a1,2526 <TIM_ARRPreloadConfig+0xc>
    251e:	0807e793          	ori	a5,a5,128
    2522:	a11e                	sh	a5,0(a0)
    2524:	8082                	ret
    2526:	07c2                	slli	a5,a5,0x10
    2528:	83c1                	srli	a5,a5,0x10
    252a:	f7f7f793          	andi	a5,a5,-129
    252e:	07c2                	slli	a5,a5,0x10
    2530:	83c1                	srli	a5,a5,0x10
    2532:	bfc5                	j	2522 <TIM_ARRPreloadConfig+0x8>

00002534 <TIM_OC3PreloadConfig>:
    2534:	2d5e                	lhu	a5,28(a0)
    2536:	07c2                	slli	a5,a5,0x10
    2538:	83c1                	srli	a5,a5,0x10
    253a:	9bdd                	andi	a5,a5,-9
    253c:	8ddd                	or	a1,a1,a5
    253e:	ad4e                	sh	a1,28(a0)
    2540:	8082                	ret

00002542 <TIM_OC4PreloadConfig>:
    2542:	2d5a                	lhu	a4,28(a0)
    2544:	77fd                	lui	a5,0xfffff
    2546:	7ff78793          	addi	a5,a5,2047 # fffff7ff <__global_pointer$+0xdfffeeaf>
    254a:	8ff9                	and	a5,a5,a4
    254c:	05a2                	slli	a1,a1,0x8
    254e:	8fcd                	or	a5,a5,a1
    2550:	07c2                	slli	a5,a5,0x10
    2552:	83c1                	srli	a5,a5,0x10
    2554:	ad5e                	sh	a5,28(a0)
    2556:	8082                	ret

00002558 <TIM_SetCompare4>:
    2558:	c12c                	sw	a1,64(a0)
    255a:	8082                	ret

0000255c <TIM_ClearFlag>:
    255c:	fff5c593          	not	a1,a1
    2560:	05c2                	slli	a1,a1,0x10
    2562:	81c1                	srli	a1,a1,0x10
    2564:	a90e                	sh	a1,16(a0)
    2566:	8082                	ret

00002568 <_sbrk>:
    2568:	20000737          	lui	a4,0x20000
    256c:	0ec70713          	addi	a4,a4,236 # 200000ec <curbrk.4059>
    2570:	431c                	lw	a5,0(a4)
    2572:	bc818693          	addi	a3,gp,-1080 # 20000518 <_ebss>
    2576:	953e                	add	a0,a0,a5
    2578:	00d56963          	bltu	a0,a3,258a <_sbrk+0x22>
    257c:	db018693          	addi	a3,gp,-592 # 20000700 <_heap_end>
    2580:	00a6e563          	bltu	a3,a0,258a <_sbrk+0x22>
    2584:	c308                	sw	a0,0(a4)
    2586:	853e                	mv	a0,a5
    2588:	8082                	ret
    258a:	57fd                	li	a5,-1
    258c:	bfed                	j	2586 <_sbrk+0x1e>

0000258e <malloc>:
    258e:	1fffe797          	auipc	a5,0x1fffe
    2592:	bc278793          	addi	a5,a5,-1086 # 20000150 <_impure_ptr>
    2596:	85aa                	mv	a1,a0
    2598:	4388                	lw	a0,0(a5)
    259a:	a0a1                	j	25e2 <_malloc_r>

0000259c <memmove>:
    259c:	04a5f163          	bgeu	a1,a0,25de <memmove+0x42>
    25a0:	00c586b3          	add	a3,a1,a2
    25a4:	02d57d63          	bgeu	a0,a3,25de <memmove+0x42>
    25a8:	fff64593          	not	a1,a2
    25ac:	4781                	li	a5,0
    25ae:	17fd                	addi	a5,a5,-1
    25b0:	00f59363          	bne	a1,a5,25b6 <memmove+0x1a>
    25b4:	8082                	ret
    25b6:	00f68733          	add	a4,a3,a5
    25ba:	00074303          	lbu	t1,0(a4)
    25be:	00c78733          	add	a4,a5,a2
    25c2:	972a                	add	a4,a4,a0
    25c4:	00670023          	sb	t1,0(a4)
    25c8:	b7dd                	j	25ae <memmove+0x12>
    25ca:	00f58733          	add	a4,a1,a5
    25ce:	2314                	lbu	a3,0(a4)
    25d0:	00f50733          	add	a4,a0,a5
    25d4:	0785                	addi	a5,a5,1
    25d6:	a314                	sb	a3,0(a4)
    25d8:	fef619e3          	bne	a2,a5,25ca <memmove+0x2e>
    25dc:	8082                	ret
    25de:	4781                	li	a5,0
    25e0:	bfe5                	j	25d8 <memmove+0x3c>

000025e2 <_malloc_r>:
    25e2:	1141                	addi	sp,sp,-16
    25e4:	c226                	sw	s1,4(sp)
    25e6:	00358493          	addi	s1,a1,3
    25ea:	98f1                	andi	s1,s1,-4
    25ec:	c606                	sw	ra,12(sp)
    25ee:	c422                	sw	s0,8(sp)
    25f0:	04a1                	addi	s1,s1,8
    25f2:	47b1                	li	a5,12
    25f4:	04f4f563          	bgeu	s1,a5,263e <_malloc_r+0x5c>
    25f8:	44b1                	li	s1,12
    25fa:	04b4e463          	bltu	s1,a1,2642 <_malloc_r+0x60>
    25fe:	c02a                	sw	a0,0(sp)
    2600:	2a91                	jal	2754 <__malloc_lock>
    2602:	80818713          	addi	a4,gp,-2040 # 20000158 <_edata>
    2606:	4314                	lw	a3,0(a4)
    2608:	4782                	lw	a5,0(sp)
    260a:	8436                	mv	s0,a3
    260c:	e039                	bnez	s0,2652 <_malloc_r+0x70>
    260e:	80c18713          	addi	a4,gp,-2036 # 2000015c <__malloc_sbrk_start>
    2612:	4318                	lw	a4,0(a4)
    2614:	eb01                	bnez	a4,2624 <_malloc_r+0x42>
    2616:	853e                	mv	a0,a5
    2618:	4581                	li	a1,0
    261a:	c03e                	sw	a5,0(sp)
    261c:	2239                	jal	272a <_sbrk_r>
    261e:	80a1a623          	sw	a0,-2036(gp) # 2000015c <__malloc_sbrk_start>
    2622:	4782                	lw	a5,0(sp)
    2624:	853e                	mv	a0,a5
    2626:	85a6                	mv	a1,s1
    2628:	c03e                	sw	a5,0(sp)
    262a:	2201                	jal	272a <_sbrk_r>
    262c:	577d                	li	a4,-1
    262e:	4782                	lw	a5,0(sp)
    2630:	06e51463          	bne	a0,a4,2698 <_malloc_r+0xb6>
    2634:	4731                	li	a4,12
    2636:	c398                	sw	a4,0(a5)
    2638:	853e                	mv	a0,a5
    263a:	2a31                	jal	2756 <__malloc_unlock>
    263c:	a029                	j	2646 <_malloc_r+0x64>
    263e:	fa04dee3          	bgez	s1,25fa <_malloc_r+0x18>
    2642:	47b1                	li	a5,12
    2644:	c11c                	sw	a5,0(a0)
    2646:	4501                	li	a0,0
    2648:	40b2                	lw	ra,12(sp)
    264a:	4422                	lw	s0,8(sp)
    264c:	4492                	lw	s1,4(sp)
    264e:	0141                	addi	sp,sp,16
    2650:	8082                	ret
    2652:	4018                	lw	a4,0(s0)
    2654:	8f05                	sub	a4,a4,s1
    2656:	02074e63          	bltz	a4,2692 <_malloc_r+0xb0>
    265a:	462d                	li	a2,11
    265c:	00e67663          	bgeu	a2,a4,2668 <_malloc_r+0x86>
    2660:	c018                	sw	a4,0(s0)
    2662:	943a                	add	s0,s0,a4
    2664:	c004                	sw	s1,0(s0)
    2666:	a031                	j	2672 <_malloc_r+0x90>
    2668:	4058                	lw	a4,4(s0)
    266a:	02869263          	bne	a3,s0,268e <_malloc_r+0xac>
    266e:	80e1a423          	sw	a4,-2040(gp) # 20000158 <_edata>
    2672:	853e                	mv	a0,a5
    2674:	20cd                	jal	2756 <__malloc_unlock>
    2676:	00b40513          	addi	a0,s0,11
    267a:	00440713          	addi	a4,s0,4
    267e:	9961                	andi	a0,a0,-8
    2680:	40e507b3          	sub	a5,a0,a4
    2684:	d3f1                	beqz	a5,2648 <_malloc_r+0x66>
    2686:	943e                	add	s0,s0,a5
    2688:	8f09                	sub	a4,a4,a0
    268a:	c018                	sw	a4,0(s0)
    268c:	bf75                	j	2648 <_malloc_r+0x66>
    268e:	c2d8                	sw	a4,4(a3)
    2690:	b7cd                	j	2672 <_malloc_r+0x90>
    2692:	86a2                	mv	a3,s0
    2694:	4040                	lw	s0,4(s0)
    2696:	bf9d                	j	260c <_malloc_r+0x2a>
    2698:	00350413          	addi	s0,a0,3
    269c:	9871                	andi	s0,s0,-4
    269e:	fc8503e3          	beq	a0,s0,2664 <_malloc_r+0x82>
    26a2:	40a405b3          	sub	a1,s0,a0
    26a6:	853e                	mv	a0,a5
    26a8:	c03e                	sw	a5,0(sp)
    26aa:	2041                	jal	272a <_sbrk_r>
    26ac:	577d                	li	a4,-1
    26ae:	4782                	lw	a5,0(sp)
    26b0:	fae51ae3          	bne	a0,a4,2664 <_malloc_r+0x82>
    26b4:	b741                	j	2634 <_malloc_r+0x52>

000026b6 <random>:
    26b6:	1151                	addi	sp,sp,-12
    26b8:	1fffe797          	auipc	a5,0x1fffe
    26bc:	a9878793          	addi	a5,a5,-1384 # 20000150 <_impure_ptr>
    26c0:	c222                	sw	s0,4(sp)
    26c2:	4380                	lw	s0,0(a5)
    26c4:	c406                	sw	ra,8(sp)
    26c6:	5c1c                	lw	a5,56(s0)
    26c8:	eb95                	bnez	a5,26fc <random+0x46>
    26ca:	4561                	li	a0,24
    26cc:	ec3ff0ef          	jal	ra,258e <malloc>
    26d0:	abcd37b7          	lui	a5,0xabcd3
    26d4:	dc08                	sw	a0,56(s0)
    26d6:	30e78793          	addi	a5,a5,782 # abcd330e <__global_pointer$+0x8bcd29be>
    26da:	c11c                	sw	a5,0(a0)
    26dc:	e66d17b7          	lui	a5,0xe66d1
    26e0:	23478793          	addi	a5,a5,564 # e66d1234 <__global_pointer$+0xc66d08e4>
    26e4:	c15c                	sw	a5,4(a0)
    26e6:	0005e7b7          	lui	a5,0x5e
    26ea:	eec78793          	addi	a5,a5,-276 # 5deec <_data_lma+0x5a94c>
    26ee:	c51c                	sw	a5,8(a0)
    26f0:	47ad                	li	a5,11
    26f2:	a55e                	sh	a5,12(a0)
    26f4:	4705                	li	a4,1
    26f6:	4781                	li	a5,0
    26f8:	c918                	sw	a4,16(a0)
    26fa:	c95c                	sw	a5,20(a0)
    26fc:	5c00                	lw	s0,56(s0)
    26fe:	00001797          	auipc	a5,0x1
    2702:	e9a78793          	addi	a5,a5,-358 # 3598 <msxfont+0x804>
    2706:	4390                	lw	a2,0(a5)
    2708:	4808                	lw	a0,16(s0)
    270a:	484c                	lw	a1,20(s0)
    270c:	43d4                	lw	a3,4(a5)
    270e:	20a9                	jal	2758 <__muldi3>
    2710:	00150793          	addi	a5,a0,1
    2714:	00a7b533          	sltu	a0,a5,a0
    2718:	952e                	add	a0,a0,a1
    271a:	c848                	sw	a0,20(s0)
    271c:	c81c                	sw	a5,16(s0)
    271e:	40a2                	lw	ra,8(sp)
    2720:	4412                	lw	s0,4(sp)
    2722:	0506                	slli	a0,a0,0x1
    2724:	8105                	srli	a0,a0,0x1
    2726:	0131                	addi	sp,sp,12
    2728:	8082                	ret

0000272a <_sbrk_r>:
    272a:	1151                	addi	sp,sp,-12
    272c:	c222                	sw	s0,4(sp)
    272e:	842a                	mv	s0,a0
    2730:	852e                	mv	a0,a1
    2732:	bc01a223          	sw	zero,-1084(gp) # 20000514 <errno>
    2736:	c406                	sw	ra,8(sp)
    2738:	e31ff0ef          	jal	ra,2568 <_sbrk>
    273c:	57fd                	li	a5,-1
    273e:	00f51763          	bne	a0,a5,274c <_sbrk_r+0x22>
    2742:	bc418793          	addi	a5,gp,-1084 # 20000514 <errno>
    2746:	439c                	lw	a5,0(a5)
    2748:	c391                	beqz	a5,274c <_sbrk_r+0x22>
    274a:	c01c                	sw	a5,0(s0)
    274c:	40a2                	lw	ra,8(sp)
    274e:	4412                	lw	s0,4(sp)
    2750:	0131                	addi	sp,sp,12
    2752:	8082                	ret

00002754 <__malloc_lock>:
    2754:	8082                	ret

00002756 <__malloc_unlock>:
    2756:	8082                	ret

00002758 <__muldi3>:
    2758:	1121                	addi	sp,sp,-24
    275a:	c22a                	sw	a0,4(sp)
    275c:	c036                	sw	a3,0(sp)
    275e:	ca06                	sw	ra,20(sp)
    2760:	86aa                	mv	a3,a0
    2762:	c822                	sw	s0,16(sp)
    2764:	c626                	sw	s1,12(sp)
    2766:	8732                	mv	a4,a2
    2768:	c432                	sw	a2,8(sp)
    276a:	4781                	li	a5,0
    276c:	4501                	li	a0,0
    276e:	4301                	li	t1,0
    2770:	00668633          	add	a2,a3,t1
    2774:	00177393          	andi	t2,a4,1
    2778:	00f50433          	add	s0,a0,a5
    277c:	01f6d293          	srli	t0,a3,0x1f
    2780:	8305                	srli	a4,a4,0x1
    2782:	006634b3          	sltu	s1,a2,t1
    2786:	0786                	slli	a5,a5,0x1
    2788:	00038563          	beqz	t2,2792 <__muldi3+0x3a>
    278c:	00848533          	add	a0,s1,s0
    2790:	8332                	mv	t1,a2
    2792:	0686                	slli	a3,a3,0x1
    2794:	0057e7b3          	or	a5,a5,t0
    2798:	ff61                	bnez	a4,2770 <__muldi3+0x18>
    279a:	87aa                	mv	a5,a0
    279c:	c589                	beqz	a1,27a6 <__muldi3+0x4e>
    279e:	4522                	lw	a0,8(sp)
    27a0:	915fd0ef          	jal	ra,b4 <__mulsi3>
    27a4:	97aa                	add	a5,a5,a0
    27a6:	4702                	lw	a4,0(sp)
    27a8:	c711                	beqz	a4,27b4 <__muldi3+0x5c>
    27aa:	4512                	lw	a0,4(sp)
    27ac:	85ba                	mv	a1,a4
    27ae:	907fd0ef          	jal	ra,b4 <__mulsi3>
    27b2:	97aa                	add	a5,a5,a0
    27b4:	40d2                	lw	ra,20(sp)
    27b6:	4442                	lw	s0,16(sp)
    27b8:	44b2                	lw	s1,12(sp)
    27ba:	851a                	mv	a0,t1
    27bc:	85be                	mv	a1,a5
    27be:	0161                	addi	sp,sp,24
    27c0:	8082                	ret
	...

000027c4 <CSWTCH.43>:
    27c4:	002f 0000 0000 0000 0000 0000 0000 0000     /...............
    27d4:	000d 0000 0000 0000 0000 0000 0000 0000     ................
    27e4:	0800 0000 0000 7f00 000a 0b15 0000 0000     ................
    27f4:	001a 1900                                   ....

000027f8 <PS2Keymap_Japanese>:
	...
    2804:	0900 0000 0000 0000 7100 0031 0000 737a     .........q1...zs
    2814:	7761 0032 6300 6478 3465 0033 2000 6676     aw2..cxde43.. vf
    2824:	7274 0035 6e00 6862 7967 0036 0000 6a6d     tr5..nbhgy6...mj
    2834:	3775 0038 2c00 696b 306f 0039 2e00 6c2f     u78..,kio09.../l
    2844:	703b 002d 5c00 003a 5e40 0000 0000 5b0d     ;p-..\:.@^.....[
    2854:	5d00 0000 0000 0000 0000 007f 3100 345c     .]...........1\4
    2864:	4937 004a 2e30 3532 3836 001b 2b00 2d33     7IJ.0.2568...+3-
    2874:	392a 0000 0000 0000 0000 0000 0000 0000     *9..............
	...
    288c:	0900 0000 0000 0000 5100 0021 0000 535a     .........Q!...ZS
    289c:	5741 0022 4300 4458 2445 0023 2000 4656     AW"..CXDE$#.. VF
    28ac:	5254 0025 4e00 4842 5947 0026 0000 4a4d     TR%..NBHGY&...MJ
    28bc:	2755 0028 3c00 494b 004f 0029 3e00 4c3f     U'(..<KIO.)..>?L
    28cc:	502b 003d 5f00 002a 7e60 0000 0000 7b0d     +P=.._*.`~.....{
    28dc:	7d00 0000 0000 0000 0000 007f 3100 347c     .}...........1|4
    28ec:	0037 0000 2e30 3532 3836 001b 2b00 2d33     7...0.2568...+3-
    28fc:	392a 0000 0000 0000 0000 0000 0000 0000     *9..............
	...
    2994:	0e3c 0000 0e16 0000 0e34 0000 0e0c 0000     <.......4.......
    29a4:	0e28 0000 0e20 0000 0ede 0000 0ed8 0000     (... ...........
    29b4:	0f98 0000 0f98 0000 0f04 0000 0f98 0000     ................
    29c4:	0f98 0000 0f98 0000 0f98 0000 0f98 0000     ................
    29d4:	0f98 0000 0f98 0000 0f0a 0000 0f36 0000     ............6...
    29e4:	0f58 0000 0f72 0000 0f98 0000 0f98 0000     X...r...........
    29f4:	0f98 0000 0f98 0000 0f98 0000 0eb2 0000     ................
    2a04:	0eec 0000 1328 0000 135a 0000 13c8 0000     ....(...Z.......
    2a14:	1400 0000 1608 0000 1608 0000 14e2 0000     ................
    2a24:	15a0 0000 15ba 0000 1316 0000 15f4 0000     ................
    2a34:	15ea 0000 15e2 0000 1608 0000 1602 0000     ................
    2a44:	1608 0000 1608 0000 1608 0000 1608 0000     ................
    2a54:	1608 0000 1608 0000 1608 0000 1608 0000     ................
    2a64:	1608 0000 1608 0000 1608 0000 1608 0000     ................
    2a74:	15da 0000 1608 0000 1608 0000 1608 0000     ................
    2a84:	15fe 0000 15fe 0000 15fe 0000 15fe 0000     ................
    2a94:	15fe 0000 1608 0000 15d2 0000 17fe 0000     ................
    2aa4:	1812 0000 17e6 0000 1816 0000 1824 0000     ............$...
    2ab4:	4f54 4f59 4853 4b49 2049 4954 594e 4220     TOYOSHIKI TINY B
    2ac4:	5341 4349 0000 0000 4843 3233 3056 3330     ASIC....CH32V003
    2ad4:	0000 0000 4520 4944 4954 4e4f 0000 0000     .... EDITION....
    2ae4:	494c 454e 003a 0000 4f59 2055 5954 4550     LINE:...YOU TYPE
    2af4:	203a 0000                                   : ..

00002af8 <i_nsa>:
    2af8:	0902 0f0d 1110 1312 1514 1716 1918 1b1a     ................
    2b08:	1d1c 001e                                   ....

00002b0c <i_nsb>:
    2b0c:	100f 1211 1413 1615 1817 1a19 0e0d 0027     ..............'.
    2b1c:	2840 0000 3a29 0000 4b4f 0000 6544 6976     @(..):..OK..Devi
    2b2c:	6973 6e6f 6220 2079 657a 6f72 0000 0000     sion by zero....
    2b3c:	764f 7265 6c66 776f 0000 0000 7553 7362     Overflow....Subs
    2b4c:	7263 7069 2074 756f 2074 666f 7220 6e61     cript out of ran
    2b5c:	6567 0000 6349 646f 2065 7562 6666 7265     ge..Icode buffer
    2b6c:	6620 6c75 006c 0000 694c 7473 6620 6c75      full...List ful
    2b7c:	006c 0000 4f47 5553 2042 6f74 206f 616d     l...GOSUB too ma
    2b8c:	796e 6e20 7365 6574 0064 0000 4552 5554     ny nested...RETU
    2b9c:	4e52 7320 6174 6b63 7520 646e 7265 6c66     RN stack underfl
    2bac:	776f 0000 4f46 2052 6f74 206f 616d 796e     ow..FOR too many
    2bbc:	6e20 7365 6574 0064 454e 5458 7720 7469      nested.NEXT wit
    2bcc:	6f68 7475 4620 524f 0000 0000 454e 5458     hout FOR....NEXT
    2bdc:	7720 7469 6f68 7475 6320 756f 746e 7265      without counter
    2bec:	0000 0000 454e 5458 6d20 7369 616d 6374     ....NEXT mismatc
    2bfc:	2068 4f46 0052 0000 4f46 2052 6977 6874     h FOR...FOR with
    2c0c:	756f 2074 6176 6972 6261 656c 0000 0000     out variable....
    2c1c:	4f46 2052 6977 6874 756f 2074 4f54 0000     FOR without TO..
    2c2c:	454c 2054 6977 6874 756f 2074 6176 6972     LET without vari
    2c3c:	6261 656c 0000 0000 4649 7720 7469 6f68     able....IF witho
    2c4c:	7475 6320 6e6f 6964 6974 6e6f 0000 0000     ut condition....
    2c5c:	6e55 6564 6966 656e 2064 696c 656e 6e20     Undefined line n
    2c6c:	6d75 6562 0072 0000 2827 2027 726f 2720     umber...'(' or '
    2c7c:	2729 6520 7078 6365 6574 0064 3d27 2027     )' expected.'=' 
    2c8c:	7865 6570 7463 6465 0000 0000 6c49 656c     expected....Ille
    2c9c:	6167 206c 6f63 6d6d 6e61 0064 7953 746e     gal command.Synt
    2cac:	7861 6520 7272 726f 0000 0000 6e49 6574     ax error....Inte
    2cbc:	6e72 6c61 6520 7272 726f 0000 6241 726f     rnal error..Abor
    2ccc:	2074 7962 5b20 5345 5d43 0000 4f47 4f54     t by [ESC]..GOTO
    2cdc:	0000 0000 4f47 5553 0042 0000 4552 5554     ....GOSUB...RETU
    2cec:	4e52 0000 4f46 0052 5453 5045 0000 0000     RN..FOR.STEP....
    2cfc:	454e 5458 0000 0000 4649 0000 4552 004d     NEXT....IF..REM.
    2d0c:	5453 504f 0000 0000 4e49 5550 0054 0000     STOP....INPUT...
    2d1c:	5250 4e49 0054 0000 454c 0054 002c 0000     PRINT...LET.,...
    2d2c:	003b 0000 002d 0000 002b 0000 002a 0000     ;...-...+...*...
    2d3c:	002f 0000 0028 0000 0029 0000 3d3e 0000     /...(...)...>=..
    2d4c:	0023 0000 003e 0000 003d 0000 3d3c 0000     #...>...=...<=..
    2d5c:	003c 0000 0040 0000 4e52 0044 4241 0053     <...@...RND.ABS.
    2d6c:	4953 455a 0000 0000 494c 5453 0000 0000     SIZE....LIST....
    2d7c:	5552 004e 454e 0057 4153 4556 0000 0000     RUN.NEW.SAVE....
    2d8c:	4f4c 4441 0000 0000                         LOAD....

00002d94 <msxfont>:
	...
    2d9c:	427e 427e 427e 0082 9210 1054 4428 0082     ~B~B~B....T.(D..
    2dac:	1412 14f8 5234 0092 1010 10fe 5438 0092     ....4R......8T..
    2dbc:	2810 927c 5438 00fe 1010 7c10 1010 00fe     .(|.8T.....|....
    2dcc:	427e 7e42 4242 007e 7e40 3c48 7e28 0008     ~BB~BB~.@~H<(~..
    2ddc:	92fe fe92 8282 0086 ee04 efa4 eaa2 0006     ................
    2dec:	4428 3c82 2414 004c c828 ea5c c86c 0050     (D.<.$L.(.\.l.P.
    2dfc:	207c 447c 447c 007c 700c fe10 1010 0010     | |D|D|..p......
    2e0c:	107e 121e 4422 0008 7c00 2828 4e28 0000     ~..."D...|(((N..
    2e1c:	1010 ff10 0000 0000 0000 ff00 1010 1010     ................
    2e2c:	1010 f010 1010 1010 1010 1f10 1010 1010     ................
    2e3c:	1010 ff10 1010 1010 1010 1010 1010 1010     ................
    2e4c:	0000 ff00 0000 0000 0000 1f00 1010 1010     ................
    2e5c:	0000 f000 1010 1010 1010 1f10 0000 0000     ................
    2e6c:	1010 f010 0000 0000 4281 1824 2418 8142     .........B$..$B.
    2e7c:	7c10 1010 4428 0082 1010 92fe 10fe 0010     .|..(D..........
    2e8c:	1010 5454 1092 0030 0000 0000 0000 0000     ..TT..0.........
    2e9c:	2020 2020 0000 0020 5050 0050 0000 0000         .. .PPP.....
    2eac:	5050 50f8 50f8 0050 7820 70a0 f028 0020     PP.P.PP. x.p(. .
    2ebc:	c8c0 2010 9840 0018 a040 a840 9890 0060     ... @...@.@...`.
    2ecc:	2010 0040 0000 0000 2010 4040 2040 0010     . @...... @@@ ..
    2edc:	2040 1010 2010 0040 a820 2070 a870 0020     @ ... @. .p p. .
    2eec:	2000 f820 2020 0000 0000 0000 2000 4020     .  .  .......  @
    2efc:	0000 7800 0000 0000 0000 0000 6000 0060     ...x.........``.
    2f0c:	0000 1008 4020 0080 8870 a898 88c8 0070     .... @..p.....p.
    2f1c:	6020 20a0 2020 00f8 8870 1008 8060 00f8      `.   ..p...`...
    2f2c:	8870 3008 8808 0070 3010 9050 10f8 0010     p..0..p..0P.....
    2f3c:	80f8 10e0 1008 00e0 4030 f080 8888 0070     ........0@....p.
    2f4c:	88f8 2010 2020 0020 8870 7088 8888 0070     ...    .p..p..p.
    2f5c:	8870 7888 1008 0060 0000 0020 2000 0000     p..x..`... .. ..
    2f6c:	0000 0020 2000 4020 3018 c060 3060 0018     .. ..  @.0`.`0..
    2f7c:	0000 00f8 00f8 0000 60c0 1830 6030 00c0     .........`0.0`..
    2f8c:	8870 1008 0020 0020 8870 6808 a8a8 0070     p... . .p..h..p.
    2f9c:	5020 8888 88f8 0088 48f0 7048 4848 00f0      P.......HHpHH..
    2fac:	4830 8080 4880 0030 50e0 4848 5048 00e0     0H...H0..PHHHP..
    2fbc:	80f8 f080 8080 00f8 80f8 f080 8080 0080     ................
    2fcc:	8870 b880 8888 0070 8888 f888 8888 0088     p.....p.........
    2fdc:	2070 2020 2020 0070 1038 1010 9090 0060     p     p.8.....`.
    2fec:	9088 c0a0 90a0 0088 8080 8080 8080 00f8     ................
    2ffc:	d888 a8a8 8888 0088 c888 a8c8 9898 0088     ................
    300c:	8870 8888 8888 0070 88f0 f088 8080 0080     p.....p.........
    301c:	8870 8888 90a8 0068 88f0 f088 90a0 0088     p.....h.........
    302c:	8870 7080 8808 0070 20f8 2020 2020 0020     p..p..p..      .
    303c:	8888 8888 8888 0070 8888 8888 5050 0020     ......p.....PP .
    304c:	8888 a888 d8a8 0088 8888 2050 8850 0088     ..........P P...
    305c:	8888 7088 2020 0020 08f8 2010 8040 00f8     ...p   .... @...
    306c:	4070 4040 4040 0070 5088 7020 7020 0020     p@@@@@p..P p p .
    307c:	1070 1010 1010 0070 5020 0088 0000 0000     p.....p. P......
    308c:	0000 0000 0000 00f8 2040 0010 0000 0000     ........@ ......
    309c:	0000 0870 8878 0078 8080 c8b0 c888 00b0     ..p.x.x.........
    30ac:	0000 8870 8880 0070 0808 9868 9888 0068     ..p...p...h...h.
    30bc:	0000 8870 80f8 0070 2810 f820 2020 0020     ..p...p..( .   .
    30cc:	0000 9868 6898 7008 8080 88f0 8888 0088     ..h..h.p........
    30dc:	0020 2060 2020 0070 0010 1030 1010 6090      .`   p...0....`
    30ec:	4040 5048 5060 0048 2060 2020 2020 0070     @@HP`PH.`     p.
    30fc:	0000 a8d0 a8a8 00a8 0000 c8b0 8888 0088     ................
    310c:	0000 8870 8888 0070 0000 c8b0 b0c8 8080     ..p...p.........
    311c:	0000 9868 6898 0808 0000 c8b0 8080 0080     ..h..h..........
    312c:	0000 8078 08f0 00f0 4040 40f0 4840 0030     ..x.....@@.@@H0.
    313c:	0000 9090 9090 0068 0000 8888 5088 0020     ......h......P .
    314c:	0000 a888 a8a8 0050 0000 5088 5020 0088     ......P....P P..
    315c:	0000 8888 6898 7008 0000 10f8 4020 00f8     .....h.p.... @..
    316c:	2018 4020 2020 0018 2020 0020 2020 0020     .  @  ..   .   .
    317c:	20c0 1020 2020 00c0 a840 0010 0000 0000     .  .  ..@.......
	...
    3194:	3810 fe7c 38fe 007c fe6c fefe 387c 0010     .8|..8|.l...|8..
    31a4:	3838 fefe 10d6 007c 3810 fe7c 387c 0010     88....|..8|.|8..
    31b4:	7800 8484 8484 0078 7800 fcfc fcfc 0078     .x....x..x....x.
    31c4:	f020 704c 40a8 003c 2000 2078 b478 0064      .Lp.@<.. x x.d.
    31d4:	0000 8488 8484 0040 7000 7000 0888 0030     ......@..p.p..0.
    31e4:	7000 f000 6020 0098 2000 24f8 a478 0068     .p.. `... .$x.h.
    31f4:	9000 6458 20a8 0010 1000 d4b8 1894 0020     ..Xd. ........ .
    3204:	1000 101c 9870 0074 0000 7800 0404 0038     ....p.t....x..8.
	...
    321c:	7c20 7c20 92aa 0064 8400 8282 8082 0040      | |..d.......@.
    322c:	0038 4438 0804 0030 0070 10f8 6020 009c     8.8D..0.p... `..
    323c:	fa24 7c20 a2a2 0044 4440 4af2 8848 0030     $. |..D.@D.JH.0.
    324c:	fc20 fc10 8008 0078 1008 4020 1020 0008      .....x... @ ...
    325c:	8404 849e 8484 0048 0478 0000 8000 007c     ......H.x.....|.
    326c:	fe10 0408 8004 0078 8080 8080 8884 0070     ......x.......p.
    327c:	fe08 4838 0838 0010 4444 44fe 4048 003c     ..8H8...DD.DH@<.
    328c:	2844 20fe 4040 003c 0000 0000 0000 0000     D(. @@<.........
    329c:	0000 0000 9060 0060 2038 2020 0000 0000     ....`.`.8   ....
    32ac:	0000 2000 2020 00e0 0000 0000 4080 0020     ...   .......@ .
    32bc:	0000 3000 0030 0000 08f8 08f8 2010 0040     ...00........ @.
    32cc:	0000 10f0 4060 0080 1000 6020 20a0 0020     ....`@.... `.  .
    32dc:	2000 90f0 2010 0040 0000 20f0 2020 00f0     . ... @....   ..
    32ec:	2000 60f0 a0a0 0020 4000 48f8 4050 0040     . .`.. ..@.HP@@.
    32fc:	0000 1070 1010 00f8 0000 10f0 10f0 00f0     ..p.............
    330c:	0000 a8a8 1008 0020 0000 7c80 0000 0000     ...... ....|....
    331c:	08f8 3028 2020 0040 1008 6020 20a0 0020     ..(0  @... `.  .
    332c:	f820 8888 1008 0020 f800 2020 2020 00f8      ..... ...    ..
    333c:	f810 3010 9050 0010 f820 2828 4828 0088     ...0P... .(((H..
    334c:	f820 f820 2020 0020 4878 0888 1008 0020      . .   .xH.... .
    335c:	7840 9050 1010 0020 f800 0808 0808 00f8     @xP... .........
    336c:	f850 5050 1010 0020 c000 c808 1008 00e0     P.PP.. .........
    337c:	f800 1008 5020 0088 f840 5048 4040 0038     .... P..@.HP@@8.
    338c:	8888 0848 2010 0040 4878 8878 1008 0020     ..H.. @.xHx... .
    339c:	e010 f820 2020 0040 a8a8 08a8 1008 0020     .. .  @....... .
    33ac:	0070 20f8 2020 0040 4040 5060 4048 0040     p..   @.@@`PH@@.
    33bc:	f820 2020 2020 0040 7000 0000 0000 00f8      .    @..p......
    33cc:	f800 d008 5020 0088 f820 3008 20e8 0020     .... P.. ..0.  .
    33dc:	0808 1008 4020 0080 1020 4848 4848 0088     .... @.. .HHHH..
    33ec:	8080 80f8 8080 0078 08f8 0808 2010 0040     ......x...... @.
    33fc:	4000 10a0 0808 0000 f820 2020 a8a8 0020     .@...... .  .. .
    340c:	f800 0808 2050 0010 00f0 0060 f000 0008     ....P ....`.....
    341c:	2010 8040 8890 00f8 0808 5008 5020 0080     . @........P P..
    342c:	2078 20f8 2020 0018 f840 4848 4050 0040     x .   ..@.HHP@@.
    343c:	7000 1010 1010 00f8 f800 f808 0808 00f8     .p..............
    344c:	0070 08f8 1008 0020 4848 4848 1048 0020     p..... .HHHHH. .
    345c:	5010 5050 5850 0090 4040 4840 5048 0060     .PPPPX..@@@HHP`.
    346c:	f800 8888 8888 00f8 88f8 0888 1008 0020     .............. .
    347c:	c000 0800 1008 00e0 4890 0000 0000 0000     .........H......
    348c:	9060 0060 0000 0000 f820 4e20 9040 008e     `.`..... . N@...
    349c:	fe10 7820 0404 0078 fc00 0202 0402 0018     .. x..x.........
    34ac:	08fe 2010 2020 001c 2420 6038 8080 007c     ...   .. $8`..|.
    34bc:	f22c 4444 269c 001c 9e00 8080 9080 004e     ,.DD.&........N.
    34cc:	4848 d27c aab6 004c 4c40 62d2 d24e 004e     HH|...L.@L.bN.N.
    34dc:	3800 9254 a2a2 0044 9e04 8484 968c 004c     .8T...D.......L.
    34ec:	e410 4426 4844 0030 1020 2000 5214 00b2     ..&DDH0. .. .R..
    34fc:	0000 5020 0488 0002 841e 849e 968c 004c     .. P..........L.
    350c:	fc10 fc10 9870 0074 1070 7e14 a4a4 0048     ....p.t.p..~..H.
    351c:	f420 6022 62a2 001c 4848 aa7c a292 0044      ."`.b..HH|...D.
    352c:	f820 f820 2420 0018 5c48 e26a 1024 0010      . . $..H\j.$...
    353c:	9c10 d2b2 1c92 0020 1c10 1010 9478 0070     ...... .....x.p.
    354c:	1060 b880 84c4 0038 8408 8484 0844 0030     `.....8.....D.0.
    355c:	1078 4438 4cb4 0038 2c20 24f4 a464 0026     x.8D.L8. ,.$d.&.
    356c:	1078 7820 0484 0038 4040 62dc c242 0044     x. x..8.@@.bB.D.
    357c:	1010 2020 5260 008c 0000 0000 0000 0000     ..  `R..........
	...
    3598:	7f2d 4c95 f42d 5851                         -..L-.QX
